(dp1
S'output'
p2
S"<type 'exceptions.IndentationError'> unindent does not match any outer indentation level (initial.py, line 14)"
p3
sS'layer'
p4
S'/home/rochacbruno/Dropbox/stoodos/w2p/web2py/applications/blog/controllers/initial.py'
p5
sS'code'
p6
S'def home():\n    return "Welcome to my blog"\n\ndef contact():\n    return "form"\n\ndef about():\n    return "sobre o autor"\n\ndef user():\n\tif request.args(0) == \'register\':\n\t\tdb.auth_user.bio.writable = False\n\n    return auth()\n\ndef download():\n    return response.download(request, db)\n\nresponse._vars=response._caller(user)\n'
p7
sS'snapshot'
p8
(dp9
S'exception'
p10
(dp11
S'__getslice__'
p12
S"<method-wrapper '__getslice__' of exceptions.IndentationError object>"
p13
sS'text'
p14
S"'    return auth()\\n'"
p15
sS'__str__'
p16
S"<method-wrapper '__str__' of exceptions.IndentationError object>"
p17
sS'__reduce__'
p18
S'<built-in method __reduce__ of exceptions.IndentationError object>'
p19
sS'__dict__'
p20
S'{}'
p21
sS'__sizeof__'
p22
S'<built-in method __sizeof__ of exceptions.IndentationError object>'
p23
sS'__init__'
p24
S"<method-wrapper '__init__' of exceptions.IndentationError object>"
p25
sS'__setattr__'
p26
S"<method-wrapper '__setattr__' of exceptions.IndentationError object>"
p27
sS'__reduce_ex__'
p28
S'<built-in method __reduce_ex__ of exceptions.IndentationError object>'
p29
sS'__new__'
p30
S'<built-in method __new__ of type object>'
p31
sS'__format__'
p32
S'<built-in method __format__ of exceptions.IndentationError object>'
p33
sS'__class__'
p34
S"<type 'exceptions.IndentationError'>"
p35
sS'filename'
p36
S"'/home/rochacbruno/Dropbox/stoodos/w2p/web2py/applications/blog/controllers/initial.py'"
p37
sS'lineno'
p38
S'14'
p39
sS'msg'
p40
S"'unindent does not match any outer indentation level'"
p41
sS'__doc__'
p42
S"'Improper indentation.'"
p43
sS'__getitem__'
p44
S"<method-wrapper '__getitem__' of exceptions.IndentationError object>"
p45
sS'__setstate__'
p46
S'<built-in method __setstate__ of exceptions.IndentationError object>'
p47
sS'__getattribute__'
p48
S"<method-wrapper '__getattribute__' of exceptions.IndentationError object>"
p49
sS'print_file_and_line'
p50
S'None'
p51
sS'args'
p52
S"('unindent does not match any outer indentation level', ('/home/rochacbruno/Dropbox/stoodos/w2p/web2py/applications/blog/controllers/initial.py', 14, 18, '    return auth()\\n'))"
p53
sS'__subclasshook__'
p54
S'<built-in method __subclasshook__ of type object>'
p55
sS'offset'
p56
S'18'
p57
sS'__unicode__'
p58
S'<built-in method __unicode__ of exceptions.IndentationError object>'
p59
sS'__delattr__'
p60
S"<method-wrapper '__delattr__' of exceptions.IndentationError object>"
p61
sS'__repr__'
p62
S"<method-wrapper '__repr__' of exceptions.IndentationError object>"
p63
sS'__hash__'
p64
S"<method-wrapper '__hash__' of exceptions.IndentationError object>"
p65
ssS'evalue'
p66
S'unindent does not match any outer indentation level (initial.py, line 14)'
p67
sS'request'
p68
ccopy_reg
_reconstructor
p69
(cgluon.html
BEAUTIFY
p70
c__builtin__
object
p71
NtRp72
(dp73
S'attributes'
p74
(dp75
sS'components'
p76
(lp77
g69
(cgluon.html
TABLE
p78
g71
NtRp79
(dp80
g74
(dp81
S'level'
p82
I5
ssS'parent'
p83
Nsg76
(lp84
g69
(cgluon.html
TR
p85
g71
NtRp86
(dp87
g74
(dp88
sg83
g79
sg76
(lp89
g69
(cgluon.html
TD
p90
g71
NtRp91
(dp92
g74
(dp93
S'_style'
p94
S'font-weight:bold;vertical-align:top'
p95
ssg83
g86
sg76
(lp96
S'ajax'
p97
asbag69
(g90
g71
NtRp98
(dp99
g74
(dp100
S'_valign'
p101
S'top'
p102
ssg83
g86
sg76
(lp103
S':'
asbag69
(g90
g71
NtRp104
(dp105
g74
(dp106
sg83
g86
sg76
(lp107
g69
(g70
g71
NtRp108
(dp109
g74
(dp110
g82
I5
ssg83
g104
sg76
(lp111
S'False'
p112
asbasbasbag69
(g85
g71
NtRp113
(dp114
g74
(dp115
sg83
g79
sg76
(lp116
g69
(g90
g71
NtRp117
(dp118
g74
(dp119
g94
g95
ssg83
g113
sg76
(lp120
S'application'
p121
asbag69
(g90
g71
NtRp122
(dp123
g74
(dp124
g101
g102
ssg83
g113
sg76
(lp125
S':'
asbag69
(g90
g71
NtRp126
(dp127
g74
(dp128
sg83
g113
sg76
(lp129
g69
(g70
g71
NtRp130
(dp131
g74
(dp132
g82
I5
ssg83
g126
sg76
(lp133
S'blog'
p134
asbasbasbag69
(g85
g71
NtRp135
(dp136
g74
(dp137
sg83
g79
sg76
(lp138
g69
(g90
g71
NtRp139
(dp140
g74
(dp141
g94
g95
ssg83
g135
sg76
(lp142
g52
asbag69
(g90
g71
NtRp143
(dp144
g74
(dp145
g101
g102
ssg83
g135
sg76
(lp146
S':'
asbag69
(g90
g71
NtRp147
(dp148
g74
(dp149
sg83
g135
sg76
(lp150
g69
(g70
g71
NtRp151
(dp152
g74
(dp153
g82
I5
ssg83
g147
sg76
(lp154
g69
(g78
g71
NtRp155
(dp156
g74
(dp157
g82
I4
ssg83
Nsg76
(lp158
g69
(g85
g71
NtRp159
(dp160
g74
(dp161
sg83
g155
sg76
(lp162
g69
(g90
g71
NtRp163
(dp164
g74
(dp165
sg83
g159
sg76
(lp166
g69
(g70
g71
NtRp167
(dp168
g74
(dp169
g82
I4
ssg83
g163
sg76
(lp170
S'register'
p171
asbasbasbag69
(g85
g71
NtRp172
(dp173
g74
(dp174
sg83
g155
sg76
(lp175
g69
(g90
g71
NtRp176
(dp177
g74
(dp178
sg83
g172
sg76
(lp179
g69
(g70
g71
NtRp180
(dp181
g74
(dp182
g82
I4
ssg83
g176
sg76
(lp183
S'djbfsdhfbsd'
p184
asbasbasbasbasbasbasbag69
(g85
g71
NtRp185
(dp186
g74
(dp187
sg83
g79
sg76
(lp188
g69
(g90
g71
NtRp189
(dp190
g74
(dp191
g94
g95
ssg83
g185
sg76
(lp192
S'body'
p193
asbag69
(g90
g71
NtRp194
(dp195
g74
(dp196
g101
g102
ssg83
g185
sg76
(lp197
S':'
asbag69
(g90
g71
NtRp198
(dp199
g74
(dp200
sg83
g185
sg76
(lp201
g69
(g70
g71
NtRp202
(dp203
g74
(dp204
g82
I5
ssg83
g198
sg76
(lp205
S'<cStringIO.StringO object at 0x461d538>'
p206
asbasbasbag69
(g85
g71
NtRp207
(dp208
g74
(dp209
sg83
g79
sg76
(lp210
g69
(g90
g71
NtRp211
(dp212
g74
(dp213
g94
g95
ssg83
g207
sg76
(lp214
S'cid'
p215
asbag69
(g90
g71
NtRp216
(dp217
g74
(dp218
g101
g102
ssg83
g207
sg76
(lp219
S':'
asbag69
(g90
g71
NtRp220
(dp221
g74
(dp222
sg83
g207
sg76
(lp223
g69
(g70
g71
NtRp224
(dp225
g74
(dp226
g82
I5
ssg83
g220
sg76
(lp227
S'None'
p228
asbasbasbag69
(g85
g71
NtRp229
(dp230
g74
(dp231
sg83
g79
sg76
(lp232
g69
(g90
g71
NtRp233
(dp234
g74
(dp235
g94
g95
ssg83
g229
sg76
(lp236
S'client'
p237
asbag69
(g90
g71
NtRp238
(dp239
g74
(dp240
g101
g102
ssg83
g229
sg76
(lp241
S':'
asbag69
(g90
g71
NtRp242
(dp243
g74
(dp244
sg83
g229
sg76
(lp245
g69
(g70
g71
NtRp246
(dp247
g74
(dp248
g82
I5
ssg83
g242
sg76
(lp249
S'127.0.0.1'
p250
asbasbasbag69
(g85
g71
NtRp251
(dp252
g74
(dp253
sg83
g79
sg76
(lp254
g69
(g90
g71
NtRp255
(dp256
g74
(dp257
g94
g95
ssg83
g251
sg76
(lp258
S'controller'
p259
asbag69
(g90
g71
NtRp260
(dp261
g74
(dp262
g101
g102
ssg83
g251
sg76
(lp263
S':'
asbag69
(g90
g71
NtRp264
(dp265
g74
(dp266
sg83
g251
sg76
(lp267
g69
(g70
g71
NtRp268
(dp269
g74
(dp270
g82
I5
ssg83
g264
sg76
(lp271
S'initial'
p272
asbasbasbag69
(g85
g71
NtRp273
(dp274
g74
(dp275
sg83
g79
sg76
(lp276
g69
(g90
g71
NtRp277
(dp278
g74
(dp279
g94
g95
ssg83
g273
sg76
(lp280
S'cookies'
p281
asbag69
(g90
g71
NtRp282
(dp283
g74
(dp284
g101
g102
ssg83
g273
sg76
(lp285
S':'
asbag69
(g90
g71
NtRp286
(dp287
g74
(dp288
sg83
g273
sg76
(lp289
g69
(g70
g71
NtRp290
(dp291
g74
(dp292
g82
I5
ssg83
g286
sg76
(lp293
g69
(g78
g71
NtRp294
(dp295
g74
(dp296
g82
I4
ssg83
Nsg76
(lp297
g69
(g85
g71
NtRp298
(dp299
g74
(dp300
sg83
g294
sg76
(lp301
g69
(g90
g71
NtRp302
(dp303
g74
(dp304
g94
g95
ssg83
g298
sg76
(lp305
S'session_id_admin'
p306
asbag69
(g90
g71
NtRp307
(dp308
g74
(dp309
g101
g102
ssg83
g298
sg76
(lp310
S':'
asbag69
(g90
g71
NtRp311
(dp312
g74
(dp313
sg83
g298
sg76
(lp314
g69
(g70
g71
NtRp315
(dp316
g74
(dp317
g82
I4
ssg83
g311
sg76
(lp318
S'127.0.0.1-f9458f8b-490e-4e4c-b548-43ca0e16fc17'
p319
ag69
(g78
g71
NtRp320
(dp321
g74
(dp322
g82
I3
ssg83
Nsg76
(lp323
g69
(g85
g71
NtRp324
(dp325
g74
(dp326
sg83
g320
sg76
(lp327
g69
(g90
g71
NtRp328
(dp329
g74
(dp330
g94
g95
ssg83
g324
sg76
(lp331
S'comment'
p332
asbag69
(g90
g71
NtRp333
(dp334
g74
(dp335
g101
g102
ssg83
g324
sg76
(lp336
S':'
asbag69
(g90
g71
NtRp337
(dp338
g74
(dp339
sg83
g324
sg76
(lp340
g69
(g70
g71
NtRp341
(dp342
g74
(dp343
g82
I3
ssg83
g337
sg76
(lp344
S''
asbasbasbag69
(g85
g71
NtRp345
(dp346
g74
(dp347
sg83
g320
sg76
(lp348
g69
(g90
g71
NtRp349
(dp350
g74
(dp351
g94
g95
ssg83
g345
sg76
(lp352
S'domain'
p353
asbag69
(g90
g71
NtRp354
(dp355
g74
(dp356
g101
g102
ssg83
g345
sg76
(lp357
S':'
asbag69
(g90
g71
NtRp358
(dp359
g74
(dp360
sg83
g345
sg76
(lp361
g69
(g70
g71
NtRp362
(dp363
g74
(dp364
g82
I3
ssg83
g358
sg76
(lp365
S''
asbasbasbag69
(g85
g71
NtRp366
(dp367
g74
(dp368
sg83
g320
sg76
(lp369
g69
(g90
g71
NtRp370
(dp371
g74
(dp372
g94
g95
ssg83
g366
sg76
(lp373
S'expires'
p374
asbag69
(g90
g71
NtRp375
(dp376
g74
(dp377
g101
g102
ssg83
g366
sg76
(lp378
S':'
asbag69
(g90
g71
NtRp379
(dp380
g74
(dp381
sg83
g366
sg76
(lp382
g69
(g70
g71
NtRp383
(dp384
g74
(dp385
g82
I3
ssg83
g379
sg76
(lp386
S''
asbasbasbag69
(g85
g71
NtRp387
(dp388
g74
(dp389
sg83
g320
sg76
(lp390
g69
(g90
g71
NtRp391
(dp392
g74
(dp393
g94
g95
ssg83
g387
sg76
(lp394
S'httponly'
p395
asbag69
(g90
g71
NtRp396
(dp397
g74
(dp398
g101
g102
ssg83
g387
sg76
(lp399
S':'
asbag69
(g90
g71
NtRp400
(dp401
g74
(dp402
sg83
g387
sg76
(lp403
g69
(g70
g71
NtRp404
(dp405
g74
(dp406
g82
I3
ssg83
g400
sg76
(lp407
S''
asbasbasbag69
(g85
g71
NtRp408
(dp409
g74
(dp410
sg83
g320
sg76
(lp411
g69
(g90
g71
NtRp412
(dp413
g74
(dp414
g94
g95
ssg83
g408
sg76
(lp415
S'max-age'
p416
asbag69
(g90
g71
NtRp417
(dp418
g74
(dp419
g101
g102
ssg83
g408
sg76
(lp420
S':'
asbag69
(g90
g71
NtRp421
(dp422
g74
(dp423
sg83
g408
sg76
(lp424
g69
(g70
g71
NtRp425
(dp426
g74
(dp427
g82
I3
ssg83
g421
sg76
(lp428
S''
asbasbasbag69
(g85
g71
NtRp429
(dp430
g74
(dp431
sg83
g320
sg76
(lp432
g69
(g90
g71
NtRp433
(dp434
g74
(dp435
g94
g95
ssg83
g429
sg76
(lp436
S'path'
p437
asbag69
(g90
g71
NtRp438
(dp439
g74
(dp440
g101
g102
ssg83
g429
sg76
(lp441
S':'
asbag69
(g90
g71
NtRp442
(dp443
g74
(dp444
sg83
g429
sg76
(lp445
g69
(g70
g71
NtRp446
(dp447
g74
(dp448
g82
I3
ssg83
g442
sg76
(lp449
S''
asbasbasbag69
(g85
g71
NtRp450
(dp451
g74
(dp452
sg83
g320
sg76
(lp453
g69
(g90
g71
NtRp454
(dp455
g74
(dp456
g94
g95
ssg83
g450
sg76
(lp457
S'secure'
p458
asbag69
(g90
g71
NtRp459
(dp460
g74
(dp461
g101
g102
ssg83
g450
sg76
(lp462
S':'
asbag69
(g90
g71
NtRp463
(dp464
g74
(dp465
sg83
g450
sg76
(lp466
g69
(g70
g71
NtRp467
(dp468
g74
(dp469
g82
I3
ssg83
g463
sg76
(lp470
S''
asbasbasbag69
(g85
g71
NtRp471
(dp472
g74
(dp473
sg83
g320
sg76
(lp474
g69
(g90
g71
NtRp475
(dp476
g74
(dp477
g94
g95
ssg83
g471
sg76
(lp478
S'version'
p479
asbag69
(g90
g71
NtRp480
(dp481
g74
(dp482
g101
g102
ssg83
g471
sg76
(lp483
S':'
asbag69
(g90
g71
NtRp484
(dp485
g74
(dp486
sg83
g471
sg76
(lp487
g69
(g70
g71
NtRp488
(dp489
g74
(dp490
g82
I3
ssg83
g484
sg76
(lp491
S''
asbasbasbasbasbasbasbag69
(g85
g71
NtRp492
(dp493
g74
(dp494
sg83
g294
sg76
(lp495
g69
(g90
g71
NtRp496
(dp497
g74
(dp498
g94
g95
ssg83
g492
sg76
(lp499
S'session_id_blog'
p500
asbag69
(g90
g71
NtRp501
(dp502
g74
(dp503
g101
g102
ssg83
g492
sg76
(lp504
S':'
asbag69
(g90
g71
NtRp505
(dp506
g74
(dp507
sg83
g492
sg76
(lp508
g69
(g70
g71
NtRp509
(dp510
g74
(dp511
g82
I4
ssg83
g505
sg76
(lp512
S'127.0.0.1-41f3a938-69d7-4315-b7a4-8e2d90d156b9'
p513
ag69
(g78
g71
NtRp514
(dp515
g74
(dp516
g82
I3
ssg83
Nsg76
(lp517
g69
(g85
g71
NtRp518
(dp519
g74
(dp520
sg83
g514
sg76
(lp521
g69
(g90
g71
NtRp522
(dp523
g74
(dp524
g94
g95
ssg83
g518
sg76
(lp525
g332
asbag69
(g90
g71
NtRp526
(dp527
g74
(dp528
g101
g102
ssg83
g518
sg76
(lp529
S':'
asbag69
(g90
g71
NtRp530
(dp531
g74
(dp532
sg83
g518
sg76
(lp533
g69
(g70
g71
NtRp534
(dp535
g74
(dp536
g82
I3
ssg83
g530
sg76
(lp537
S''
asbasbasbag69
(g85
g71
NtRp538
(dp539
g74
(dp540
sg83
g514
sg76
(lp541
g69
(g90
g71
NtRp542
(dp543
g74
(dp544
g94
g95
ssg83
g538
sg76
(lp545
g353
asbag69
(g90
g71
NtRp546
(dp547
g74
(dp548
g101
g102
ssg83
g538
sg76
(lp549
S':'
asbag69
(g90
g71
NtRp550
(dp551
g74
(dp552
sg83
g538
sg76
(lp553
g69
(g70
g71
NtRp554
(dp555
g74
(dp556
g82
I3
ssg83
g550
sg76
(lp557
S''
asbasbasbag69
(g85
g71
NtRp558
(dp559
g74
(dp560
sg83
g514
sg76
(lp561
g69
(g90
g71
NtRp562
(dp563
g74
(dp564
g94
g95
ssg83
g558
sg76
(lp565
g374
asbag69
(g90
g71
NtRp566
(dp567
g74
(dp568
g101
g102
ssg83
g558
sg76
(lp569
S':'
asbag69
(g90
g71
NtRp570
(dp571
g74
(dp572
sg83
g558
sg76
(lp573
g69
(g70
g71
NtRp574
(dp575
g74
(dp576
g82
I3
ssg83
g570
sg76
(lp577
S''
asbasbasbag69
(g85
g71
NtRp578
(dp579
g74
(dp580
sg83
g514
sg76
(lp581
g69
(g90
g71
NtRp582
(dp583
g74
(dp584
g94
g95
ssg83
g578
sg76
(lp585
g395
asbag69
(g90
g71
NtRp586
(dp587
g74
(dp588
g101
g102
ssg83
g578
sg76
(lp589
S':'
asbag69
(g90
g71
NtRp590
(dp591
g74
(dp592
sg83
g578
sg76
(lp593
g69
(g70
g71
NtRp594
(dp595
g74
(dp596
g82
I3
ssg83
g590
sg76
(lp597
S''
asbasbasbag69
(g85
g71
NtRp598
(dp599
g74
(dp600
sg83
g514
sg76
(lp601
g69
(g90
g71
NtRp602
(dp603
g74
(dp604
g94
g95
ssg83
g598
sg76
(lp605
g416
asbag69
(g90
g71
NtRp606
(dp607
g74
(dp608
g101
g102
ssg83
g598
sg76
(lp609
S':'
asbag69
(g90
g71
NtRp610
(dp611
g74
(dp612
sg83
g598
sg76
(lp613
g69
(g70
g71
NtRp614
(dp615
g74
(dp616
g82
I3
ssg83
g610
sg76
(lp617
S''
asbasbasbag69
(g85
g71
NtRp618
(dp619
g74
(dp620
sg83
g514
sg76
(lp621
g69
(g90
g71
NtRp622
(dp623
g74
(dp624
g94
g95
ssg83
g618
sg76
(lp625
g437
asbag69
(g90
g71
NtRp626
(dp627
g74
(dp628
g101
g102
ssg83
g618
sg76
(lp629
S':'
asbag69
(g90
g71
NtRp630
(dp631
g74
(dp632
sg83
g618
sg76
(lp633
g69
(g70
g71
NtRp634
(dp635
g74
(dp636
g82
I3
ssg83
g630
sg76
(lp637
S''
asbasbasbag69
(g85
g71
NtRp638
(dp639
g74
(dp640
sg83
g514
sg76
(lp641
g69
(g90
g71
NtRp642
(dp643
g74
(dp644
g94
g95
ssg83
g638
sg76
(lp645
g458
asbag69
(g90
g71
NtRp646
(dp647
g74
(dp648
g101
g102
ssg83
g638
sg76
(lp649
S':'
asbag69
(g90
g71
NtRp650
(dp651
g74
(dp652
sg83
g638
sg76
(lp653
g69
(g70
g71
NtRp654
(dp655
g74
(dp656
g82
I3
ssg83
g650
sg76
(lp657
S''
asbasbasbag69
(g85
g71
NtRp658
(dp659
g74
(dp660
sg83
g514
sg76
(lp661
g69
(g90
g71
NtRp662
(dp663
g74
(dp664
g94
g95
ssg83
g658
sg76
(lp665
g479
asbag69
(g90
g71
NtRp666
(dp667
g74
(dp668
g101
g102
ssg83
g658
sg76
(lp669
S':'
asbag69
(g90
g71
NtRp670
(dp671
g74
(dp672
sg83
g658
sg76
(lp673
g69
(g70
g71
NtRp674
(dp675
g74
(dp676
g82
I3
ssg83
g670
sg76
(lp677
S''
asbasbasbasbasbasbasbasbasbasbasbag69
(g85
g71
NtRp678
(dp679
g74
(dp680
sg83
g79
sg76
(lp681
g69
(g90
g71
NtRp682
(dp683
g74
(dp684
g94
g95
ssg83
g678
sg76
(lp685
S'env'
p686
asbag69
(g90
g71
NtRp687
(dp688
g74
(dp689
g101
g102
ssg83
g678
sg76
(lp690
S':'
asbag69
(g90
g71
NtRp691
(dp692
g74
(dp693
sg83
g678
sg76
(lp694
g69
(g70
g71
NtRp695
(dp696
g74
(dp697
g82
I5
ssg83
g691
sg76
(lp698
g69
(g78
g71
NtRp699
(dp700
g74
(dp701
g82
I4
ssg83
Nsg76
(lp702
g69
(g85
g71
NtRp703
(dp704
g74
(dp705
sg83
g699
sg76
(lp706
g69
(g90
g71
NtRp707
(dp708
g74
(dp709
g94
g95
ssg83
g703
sg76
(lp710
S'app_folders'
p711
asbag69
(g90
g71
NtRp712
(dp713
g74
(dp714
g101
g102
ssg83
g703
sg76
(lp715
S':'
asbag69
(g90
g71
NtRp716
(dp717
g74
(dp718
sg83
g703
sg76
(lp719
g69
(g70
g71
NtRp720
(dp721
g74
(dp722
g82
I4
ssg83
g716
sg76
(lp723
S"set(['/home/rochacbruno/Dropbox/stoodos/w2p/web2py/applications/admin/', '/home/rochacbruno/Dropbox/stoodos/w2p/web2py/applications/blog/'])"
p724
asbasbasbag69
(g85
g71
NtRp725
(dp726
g74
(dp727
sg83
g699
sg76
(lp728
g69
(g90
g71
NtRp729
(dp730
g74
(dp731
g94
g95
ssg83
g725
sg76
(lp732
S'applications_parent'
p733
asbag69
(g90
g71
NtRp734
(dp735
g74
(dp736
g101
g102
ssg83
g725
sg76
(lp737
S':'
asbag69
(g90
g71
NtRp738
(dp739
g74
(dp740
sg83
g725
sg76
(lp741
g69
(g70
g71
NtRp742
(dp743
g74
(dp744
g82
I4
ssg83
g738
sg76
(lp745
S'/home/rochacbruno/Dropbox/stoodos/w2p/web2py'
p746
asbasbasbag69
(g85
g71
NtRp747
(dp748
g74
(dp749
sg83
g699
sg76
(lp750
g69
(g90
g71
NtRp751
(dp752
g74
(dp753
g94
g95
ssg83
g747
sg76
(lp754
S'cmd_args'
p755
asbag69
(g90
g71
NtRp756
(dp757
g74
(dp758
g101
g102
ssg83
g747
sg76
(lp759
S':'
asbag69
(g90
g71
NtRp760
(dp761
g74
(dp762
sg83
g747
sg76
(lp763
g69
(g70
g71
NtRp764
(dp765
g74
(dp766
g82
I4
ssg83
g760
sg76
(lp767
g69
(g78
g71
NtRp768
(dp769
g74
(dp770
g82
I3
ssg83
Nsg76
(lp771
sbasbasbasbag69
(g85
g71
NtRp772
(dp773
g74
(dp774
sg83
g699
sg76
(lp775
g69
(g90
g71
NtRp776
(dp777
g74
(dp778
g94
g95
ssg83
g772
sg76
(lp779
S'cmd_options'
p780
asbag69
(g90
g71
NtRp781
(dp782
g74
(dp783
g101
g102
ssg83
g772
sg76
(lp784
S':'
asbag69
(g90
g71
NtRp785
(dp786
g74
(dp787
sg83
g772
sg76
(lp788
g69
(g70
g71
NtRp789
(dp790
g74
(dp791
g82
I4
ssg83
g785
sg76
(lp792
S"<Values at 0x2b7f8c0: {'verbose': False, 'ip': '127.0.0.1', 'with_scheduler': False, 'ips': [], 'shutdown_timeout': 5, 'taskbar': False, 'port': 8000, 'maxthreads': None, 'softcron': False, 'server_name': 'crunchbang', 'bpython': False, 'nogui': False, 'pid_filename': 'httpserver.pid', 'extcron': False, 'runcron': False, 'run_system_tests': False, 'test': None, 'folder': '/home/rochacbruno/Dropbox/stoodos/w2p/web2py', 'config': '', 'minthreads': None, 'winservice': '', 'shell': None, 'run': '', 'log_filename': 'httpserver.log', 'debuglevel': 30, 'args': [''], 'socket_timeout': 5, 'ssl_ca_certificate': None, 'scheduler': None, 'profiler_filename': None, 'ssl_private_key': '', 'scheduler_groups': None, 'password': '1234', 'request_queue_size': 5, 'ssl_certificate': '', 'cronjob': False, 'numthreads': None, 'quiet': False, 'interfaces': None, 'import_models': False, 'timeout': 10, 'plain': False, 'nobanner': False}>"
p793
asbasbasbag69
(g85
g71
NtRp794
(dp795
g74
(dp796
sg83
g699
sg76
(lp797
g69
(g90
g71
NtRp798
(dp799
g74
(dp800
g94
g95
ssg83
g794
sg76
(lp801
S'db_sessions'
p802
asbag69
(g90
g71
NtRp803
(dp804
g74
(dp805
g101
g102
ssg83
g794
sg76
(lp806
S':'
asbag69
(g90
g71
NtRp807
(dp808
g74
(dp809
sg83
g794
sg76
(lp810
g69
(g70
g71
NtRp811
(dp812
g74
(dp813
g82
I4
ssg83
g807
sg76
(lp814
S'set([])'
p815
asbasbasbag69
(g85
g71
NtRp816
(dp817
g74
(dp818
sg83
g699
sg76
(lp819
g69
(g90
g71
NtRp820
(dp821
g74
(dp822
g94
g95
ssg83
g816
sg76
(lp823
S'debugging'
p824
asbag69
(g90
g71
NtRp825
(dp826
g74
(dp827
g101
g102
ssg83
g816
sg76
(lp828
S':'
asbag69
(g90
g71
NtRp829
(dp830
g74
(dp831
sg83
g816
sg76
(lp832
g69
(g70
g71
NtRp833
(dp834
g74
(dp835
g82
I4
ssg83
g829
sg76
(lp836
g112
asbasbasbag69
(g85
g71
NtRp837
(dp838
g74
(dp839
sg83
g699
sg76
(lp840
g69
(g90
g71
NtRp841
(dp842
g74
(dp843
g94
g95
ssg83
g837
sg76
(lp844
S'gluon_parent'
p845
asbag69
(g90
g71
NtRp846
(dp847
g74
(dp848
g101
g102
ssg83
g837
sg76
(lp849
S':'
asbag69
(g90
g71
NtRp850
(dp851
g74
(dp852
sg83
g837
sg76
(lp853
g69
(g70
g71
NtRp854
(dp855
g74
(dp856
g82
I4
ssg83
g850
sg76
(lp857
S'/home/rochacbruno/Dropbox/stoodos/w2p/web2py'
p858
asbasbasbag69
(g85
g71
NtRp859
(dp860
g74
(dp861
sg83
g699
sg76
(lp862
g69
(g90
g71
NtRp863
(dp864
g74
(dp865
g94
g95
ssg83
g859
sg76
(lp866
S'http_accept'
p867
asbag69
(g90
g71
NtRp868
(dp869
g74
(dp870
g101
g102
ssg83
g859
sg76
(lp871
S':'
asbag69
(g90
g71
NtRp872
(dp873
g74
(dp874
sg83
g859
sg76
(lp875
g69
(g70
g71
NtRp876
(dp877
g74
(dp878
g82
I4
ssg83
g872
sg76
(lp879
S'text/html,application/xhtml+xml,application/xml;q=0.9,*/*;q=0.8'
p880
asbasbasbag69
(g85
g71
NtRp881
(dp882
g74
(dp883
sg83
g699
sg76
(lp884
g69
(g90
g71
NtRp885
(dp886
g74
(dp887
g94
g95
ssg83
g881
sg76
(lp888
S'http_accept_charset'
p889
asbag69
(g90
g71
NtRp890
(dp891
g74
(dp892
g101
g102
ssg83
g881
sg76
(lp893
S':'
asbag69
(g90
g71
NtRp894
(dp895
g74
(dp896
sg83
g881
sg76
(lp897
g69
(g70
g71
NtRp898
(dp899
g74
(dp900
g82
I4
ssg83
g894
sg76
(lp901
S'ISO-8859-1,utf-8;q=0.7,*;q=0.3'
p902
asbasbasbag69
(g85
g71
NtRp903
(dp904
g74
(dp905
sg83
g699
sg76
(lp906
g69
(g90
g71
NtRp907
(dp908
g74
(dp909
g94
g95
ssg83
g903
sg76
(lp910
S'http_accept_encoding'
p911
asbag69
(g90
g71
NtRp912
(dp913
g74
(dp914
g101
g102
ssg83
g903
sg76
(lp915
S':'
asbag69
(g90
g71
NtRp916
(dp917
g74
(dp918
sg83
g903
sg76
(lp919
g69
(g70
g71
NtRp920
(dp921
g74
(dp922
g82
I4
ssg83
g916
sg76
(lp923
S'gzip,deflate,sdch'
p924
asbasbasbag69
(g85
g71
NtRp925
(dp926
g74
(dp927
sg83
g699
sg76
(lp928
g69
(g90
g71
NtRp929
(dp930
g74
(dp931
g94
g95
ssg83
g925
sg76
(lp932
S'http_accept_language'
p933
asbag69
(g90
g71
NtRp934
(dp935
g74
(dp936
g101
g102
ssg83
g925
sg76
(lp937
S':'
asbag69
(g90
g71
NtRp938
(dp939
g74
(dp940
sg83
g925
sg76
(lp941
g69
(g70
g71
NtRp942
(dp943
g74
(dp944
g82
I4
ssg83
g938
sg76
(lp945
S'pt-BR,pt;q=0.8,en-US;q=0.6,en;q=0.4'
p946
asbasbasbag69
(g85
g71
NtRp947
(dp948
g74
(dp949
sg83
g699
sg76
(lp950
g69
(g90
g71
NtRp951
(dp952
g74
(dp953
g94
g95
ssg83
g947
sg76
(lp954
S'http_connection'
p955
asbag69
(g90
g71
NtRp956
(dp957
g74
(dp958
g101
g102
ssg83
g947
sg76
(lp959
S':'
asbag69
(g90
g71
NtRp960
(dp961
g74
(dp962
sg83
g947
sg76
(lp963
g69
(g70
g71
NtRp964
(dp965
g74
(dp966
g82
I4
ssg83
g960
sg76
(lp967
S'keep-alive'
p968
asbasbasbag69
(g85
g71
NtRp969
(dp970
g74
(dp971
sg83
g699
sg76
(lp972
g69
(g90
g71
NtRp973
(dp974
g74
(dp975
g94
g95
ssg83
g969
sg76
(lp976
S'http_cookie'
p977
asbag69
(g90
g71
NtRp978
(dp979
g74
(dp980
g101
g102
ssg83
g969
sg76
(lp981
S':'
asbag69
(g90
g71
NtRp982
(dp983
g74
(dp984
sg83
g969
sg76
(lp985
g69
(g70
g71
NtRp986
(dp987
g74
(dp988
g82
I4
ssg83
g982
sg76
(lp989
S'session_id_admin=127.0.0.1-f9458f8b-490e-4e4c-b548-43ca0e16fc17; session_id_blog=127.0.0.1-41f3a938-69d7-4315-b7a4-8e2d90d156b9'
p990
asbasbasbag69
(g85
g71
NtRp991
(dp992
g74
(dp993
sg83
g699
sg76
(lp994
g69
(g90
g71
NtRp995
(dp996
g74
(dp997
g94
g95
ssg83
g991
sg76
(lp998
S'http_host'
p999
asbag69
(g90
g71
NtRp1000
(dp1001
g74
(dp1002
g101
g102
ssg83
g991
sg76
(lp1003
S':'
asbag69
(g90
g71
NtRp1004
(dp1005
g74
(dp1006
sg83
g991
sg76
(lp1007
g69
(g70
g71
NtRp1008
(dp1009
g74
(dp1010
g82
I4
ssg83
g1004
sg76
(lp1011
S'localhost:8000'
p1012
asbasbasbag69
(g85
g71
NtRp1013
(dp1014
g74
(dp1015
sg83
g699
sg76
(lp1016
g69
(g90
g71
NtRp1017
(dp1018
g74
(dp1019
g94
g95
ssg83
g1013
sg76
(lp1020
S'http_user_agent'
p1021
asbag69
(g90
g71
NtRp1022
(dp1023
g74
(dp1024
g101
g102
ssg83
g1013
sg76
(lp1025
S':'
asbag69
(g90
g71
NtRp1026
(dp1027
g74
(dp1028
sg83
g1013
sg76
(lp1029
g69
(g70
g71
NtRp1030
(dp1031
g74
(dp1032
g82
I4
ssg83
g1026
sg76
(lp1033
S'Mozilla/5.0 (X11; Linux x86_64) AppleWebKit/537.11 (KHTML, like Gecko) Chrome/23.0.1271.97 Safari/537.11'
p1034
asbasbasbag69
(g85
g71
NtRp1035
(dp1036
g74
(dp1037
sg83
g699
sg76
(lp1038
g69
(g90
g71
NtRp1039
(dp1040
g74
(dp1041
g94
g95
ssg83
g1035
sg76
(lp1042
S'is_jython'
p1043
asbag69
(g90
g71
NtRp1044
(dp1045
g74
(dp1046
g101
g102
ssg83
g1035
sg76
(lp1047
S':'
asbag69
(g90
g71
NtRp1048
(dp1049
g74
(dp1050
sg83
g1035
sg76
(lp1051
g69
(g70
g71
NtRp1052
(dp1053
g74
(dp1054
g82
I4
ssg83
g1048
sg76
(lp1055
g112
asbasbasbag69
(g85
g71
NtRp1056
(dp1057
g74
(dp1058
sg83
g699
sg76
(lp1059
g69
(g90
g71
NtRp1060
(dp1061
g74
(dp1062
g94
g95
ssg83
g1056
sg76
(lp1063
S'is_pypy'
p1064
asbag69
(g90
g71
NtRp1065
(dp1066
g74
(dp1067
g101
g102
ssg83
g1056
sg76
(lp1068
S':'
asbag69
(g90
g71
NtRp1069
(dp1070
g74
(dp1071
sg83
g1056
sg76
(lp1072
g69
(g70
g71
NtRp1073
(dp1074
g74
(dp1075
g82
I4
ssg83
g1069
sg76
(lp1076
g112
asbasbasbag69
(g85
g71
NtRp1077
(dp1078
g74
(dp1079
sg83
g699
sg76
(lp1080
g69
(g90
g71
NtRp1081
(dp1082
g74
(dp1083
g94
g95
ssg83
g1077
sg76
(lp1084
S'local_hosts'
p1085
asbag69
(g90
g71
NtRp1086
(dp1087
g74
(dp1088
g101
g102
ssg83
g1077
sg76
(lp1089
S':'
asbag69
(g90
g71
NtRp1090
(dp1091
g74
(dp1092
sg83
g1077
sg76
(lp1093
g69
(g70
g71
NtRp1094
(dp1095
g74
(dp1096
g82
I4
ssg83
g1090
sg76
(lp1097
g69
(g78
g71
NtRp1098
(dp1099
g74
(dp1100
g82
I3
ssg83
Nsg76
(lp1101
g69
(g85
g71
NtRp1102
(dp1103
g74
(dp1104
sg83
g1098
sg76
(lp1105
g69
(g90
g71
NtRp1106
(dp1107
g74
(dp1108
sg83
g1102
sg76
(lp1109
g69
(g70
g71
NtRp1110
(dp1111
g74
(dp1112
g82
I3
ssg83
g1106
sg76
(lp1113
S'127.0.1.1'
p1114
asbasbasbag69
(g85
g71
NtRp1115
(dp1116
g74
(dp1117
sg83
g1098
sg76
(lp1118
g69
(g90
g71
NtRp1119
(dp1120
g74
(dp1121
sg83
g1115
sg76
(lp1122
g69
(g70
g71
NtRp1123
(dp1124
g74
(dp1125
g82
I3
ssg83
g1119
sg76
(lp1126
S'::1'
p1127
asbasbasbag69
(g85
g71
NtRp1128
(dp1129
g74
(dp1130
sg83
g1098
sg76
(lp1131
g69
(g90
g71
NtRp1132
(dp1133
g74
(dp1134
sg83
g1128
sg76
(lp1135
g69
(g70
g71
NtRp1136
(dp1137
g74
(dp1138
g82
I3
ssg83
g1132
sg76
(lp1139
S'crunchbang'
p1140
asbasbasbag69
(g85
g71
NtRp1141
(dp1142
g74
(dp1143
sg83
g1098
sg76
(lp1144
g69
(g90
g71
NtRp1145
(dp1146
g74
(dp1147
sg83
g1141
sg76
(lp1148
g69
(g70
g71
NtRp1149
(dp1150
g74
(dp1151
g82
I3
ssg83
g1145
sg76
(lp1152
S'::ffff:127.0.0.1'
p1153
asbasbasbag69
(g85
g71
NtRp1154
(dp1155
g74
(dp1156
sg83
g1098
sg76
(lp1157
g69
(g90
g71
NtRp1158
(dp1159
g74
(dp1160
sg83
g1154
sg76
(lp1161
g69
(g70
g71
NtRp1162
(dp1163
g74
(dp1164
g82
I3
ssg83
g1158
sg76
(lp1165
S'127.0.0.1'
p1166
asbasbasbasbasbasbasbag69
(g85
g71
NtRp1167
(dp1168
g74
(dp1169
sg83
g699
sg76
(lp1170
g69
(g90
g71
NtRp1171
(dp1172
g74
(dp1173
g94
g95
ssg83
g1167
sg76
(lp1174
S'path_info'
p1175
asbag69
(g90
g71
NtRp1176
(dp1177
g74
(dp1178
g101
g102
ssg83
g1167
sg76
(lp1179
S':'
asbag69
(g90
g71
NtRp1180
(dp1181
g74
(dp1182
sg83
g1167
sg76
(lp1183
g69
(g70
g71
NtRp1184
(dp1185
g74
(dp1186
g82
I4
ssg83
g1180
sg76
(lp1187
S'/user/register/djbfsdhfbsd'
p1188
asbasbasbag69
(g85
g71
NtRp1189
(dp1190
g74
(dp1191
sg83
g699
sg76
(lp1192
g69
(g90
g71
NtRp1193
(dp1194
g74
(dp1195
g94
g95
ssg83
g1189
sg76
(lp1196
S'query_string'
p1197
asbag69
(g90
g71
NtRp1198
(dp1199
g74
(dp1200
g101
g102
ssg83
g1189
sg76
(lp1201
S':'
asbag69
(g90
g71
NtRp1202
(dp1203
g74
(dp1204
sg83
g1189
sg76
(lp1205
g69
(g70
g71
NtRp1206
(dp1207
g74
(dp1208
g82
I4
ssg83
g1202
sg76
(lp1209
S''
asbasbasbag69
(g85
g71
NtRp1210
(dp1211
g74
(dp1212
sg83
g699
sg76
(lp1213
g69
(g90
g71
NtRp1214
(dp1215
g74
(dp1216
g94
g95
ssg83
g1210
sg76
(lp1217
S'remote_addr'
p1218
asbag69
(g90
g71
NtRp1219
(dp1220
g74
(dp1221
g101
g102
ssg83
g1210
sg76
(lp1222
S':'
asbag69
(g90
g71
NtRp1223
(dp1224
g74
(dp1225
sg83
g1210
sg76
(lp1226
g69
(g70
g71
NtRp1227
(dp1228
g74
(dp1229
g82
I4
ssg83
g1223
sg76
(lp1230
g250
asbasbasbag69
(g85
g71
NtRp1231
(dp1232
g74
(dp1233
sg83
g699
sg76
(lp1234
g69
(g90
g71
NtRp1235
(dp1236
g74
(dp1237
g94
g95
ssg83
g1231
sg76
(lp1238
S'remote_port'
p1239
asbag69
(g90
g71
NtRp1240
(dp1241
g74
(dp1242
g101
g102
ssg83
g1231
sg76
(lp1243
S':'
asbag69
(g90
g71
NtRp1244
(dp1245
g74
(dp1246
sg83
g1231
sg76
(lp1247
g69
(g70
g71
NtRp1248
(dp1249
g74
(dp1250
g82
I4
ssg83
g1244
sg76
(lp1251
S'37033'
p1252
asbasbasbag69
(g85
g71
NtRp1253
(dp1254
g74
(dp1255
sg83
g699
sg76
(lp1256
g69
(g90
g71
NtRp1257
(dp1258
g74
(dp1259
g94
g95
ssg83
g1253
sg76
(lp1260
S'request_method'
p1261
asbag69
(g90
g71
NtRp1262
(dp1263
g74
(dp1264
g101
g102
ssg83
g1253
sg76
(lp1265
S':'
asbag69
(g90
g71
NtRp1266
(dp1267
g74
(dp1268
sg83
g1253
sg76
(lp1269
g69
(g70
g71
NtRp1270
(dp1271
g74
(dp1272
g82
I4
ssg83
g1266
sg76
(lp1273
S'GET'
p1274
asbasbasbag69
(g85
g71
NtRp1275
(dp1276
g74
(dp1277
sg83
g699
sg76
(lp1278
g69
(g90
g71
NtRp1279
(dp1280
g74
(dp1281
g94
g95
ssg83
g1275
sg76
(lp1282
S'request_uri'
p1283
asbag69
(g90
g71
NtRp1284
(dp1285
g74
(dp1286
g101
g102
ssg83
g1275
sg76
(lp1287
S':'
asbag69
(g90
g71
NtRp1288
(dp1289
g74
(dp1290
sg83
g1275
sg76
(lp1291
g69
(g70
g71
NtRp1292
(dp1293
g74
(dp1294
g82
I4
ssg83
g1288
sg76
(lp1295
S'/blog/initial/user/register/djbfsdhfbsd'
p1296
asbasbasbag69
(g85
g71
NtRp1297
(dp1298
g74
(dp1299
sg83
g699
sg76
(lp1300
g69
(g90
g71
NtRp1301
(dp1302
g74
(dp1303
g94
g95
ssg83
g1297
sg76
(lp1304
S'script_name'
p1305
asbag69
(g90
g71
NtRp1306
(dp1307
g74
(dp1308
g101
g102
ssg83
g1297
sg76
(lp1309
S':'
asbag69
(g90
g71
NtRp1310
(dp1311
g74
(dp1312
sg83
g1297
sg76
(lp1313
g69
(g70
g71
NtRp1314
(dp1315
g74
(dp1316
g82
I4
ssg83
g1310
sg76
(lp1317
S''
asbasbasbag69
(g85
g71
NtRp1318
(dp1319
g74
(dp1320
sg83
g699
sg76
(lp1321
g69
(g90
g71
NtRp1322
(dp1323
g74
(dp1324
g94
g95
ssg83
g1318
sg76
(lp1325
S'server_name'
p1326
asbag69
(g90
g71
NtRp1327
(dp1328
g74
(dp1329
g101
g102
ssg83
g1318
sg76
(lp1330
S':'
asbag69
(g90
g71
NtRp1331
(dp1332
g74
(dp1333
sg83
g1318
sg76
(lp1334
g69
(g70
g71
NtRp1335
(dp1336
g74
(dp1337
g82
I4
ssg83
g1331
sg76
(lp1338
S'crunchbang'
p1339
asbasbasbag69
(g85
g71
NtRp1340
(dp1341
g74
(dp1342
sg83
g699
sg76
(lp1343
g69
(g90
g71
NtRp1344
(dp1345
g74
(dp1346
g94
g95
ssg83
g1340
sg76
(lp1347
S'server_port'
p1348
asbag69
(g90
g71
NtRp1349
(dp1350
g74
(dp1351
g101
g102
ssg83
g1340
sg76
(lp1352
S':'
asbag69
(g90
g71
NtRp1353
(dp1354
g74
(dp1355
sg83
g1340
sg76
(lp1356
g69
(g70
g71
NtRp1357
(dp1358
g74
(dp1359
g82
I4
ssg83
g1353
sg76
(lp1360
S'8000'
p1361
asbasbasbag69
(g85
g71
NtRp1362
(dp1363
g74
(dp1364
sg83
g699
sg76
(lp1365
g69
(g90
g71
NtRp1366
(dp1367
g74
(dp1368
g94
g95
ssg83
g1362
sg76
(lp1369
S'server_protocol'
p1370
asbag69
(g90
g71
NtRp1371
(dp1372
g74
(dp1373
g101
g102
ssg83
g1362
sg76
(lp1374
S':'
asbag69
(g90
g71
NtRp1375
(dp1376
g74
(dp1377
sg83
g1362
sg76
(lp1378
g69
(g70
g71
NtRp1379
(dp1380
g74
(dp1381
g82
I4
ssg83
g1375
sg76
(lp1382
S'HTTP/1.1'
p1383
asbasbasbag69
(g85
g71
NtRp1384
(dp1385
g74
(dp1386
sg83
g699
sg76
(lp1387
g69
(g90
g71
NtRp1388
(dp1389
g74
(dp1390
g94
g95
ssg83
g1384
sg76
(lp1391
S'server_software'
p1392
asbag69
(g90
g71
NtRp1393
(dp1394
g74
(dp1395
g101
g102
ssg83
g1384
sg76
(lp1396
S':'
asbag69
(g90
g71
NtRp1397
(dp1398
g74
(dp1399
sg83
g1384
sg76
(lp1400
g69
(g70
g71
NtRp1401
(dp1402
g74
(dp1403
g82
I4
ssg83
g1397
sg76
(lp1404
S'Rocket 1.2.6'
p1405
asbasbasbag69
(g85
g71
NtRp1406
(dp1407
g74
(dp1408
sg83
g699
sg76
(lp1409
g69
(g90
g71
NtRp1410
(dp1411
g74
(dp1412
g94
g95
ssg83
g1406
sg76
(lp1413
S'web2py_original_uri'
p1414
asbag69
(g90
g71
NtRp1415
(dp1416
g74
(dp1417
g101
g102
ssg83
g1406
sg76
(lp1418
S':'
asbag69
(g90
g71
NtRp1419
(dp1420
g74
(dp1421
sg83
g1406
sg76
(lp1422
g69
(g70
g71
NtRp1423
(dp1424
g74
(dp1425
g82
I4
ssg83
g1419
sg76
(lp1426
g1188
asbasbasbag69
(g85
g71
NtRp1427
(dp1428
g74
(dp1429
sg83
g699
sg76
(lp1430
g69
(g90
g71
NtRp1431
(dp1432
g74
(dp1433
g94
g95
ssg83
g1427
sg76
(lp1434
S'web2py_path'
p1435
asbag69
(g90
g71
NtRp1436
(dp1437
g74
(dp1438
g101
g102
ssg83
g1427
sg76
(lp1439
S':'
asbag69
(g90
g71
NtRp1440
(dp1441
g74
(dp1442
sg83
g1427
sg76
(lp1443
g69
(g70
g71
NtRp1444
(dp1445
g74
(dp1446
g82
I4
ssg83
g1440
sg76
(lp1447
g746
asbasbasbag69
(g85
g71
NtRp1448
(dp1449
g74
(dp1450
sg83
g699
sg76
(lp1451
g69
(g90
g71
NtRp1452
(dp1453
g74
(dp1454
g94
g95
ssg83
g1448
sg76
(lp1455
S'web2py_version'
p1456
asbag69
(g90
g71
NtRp1457
(dp1458
g74
(dp1459
g101
g102
ssg83
g1448
sg76
(lp1460
S':'
asbag69
(g90
g71
NtRp1461
(dp1462
g74
(dp1463
sg83
g1448
sg76
(lp1464
g69
(g70
g71
NtRp1465
(dp1466
g74
(dp1467
g82
I4
ssg83
g1461
sg76
(lp1468
g69
(g78
g71
NtRp1469
(dp1470
g74
(dp1471
g82
I3
ssg83
Nsg76
(lp1472
g69
(g85
g71
NtRp1473
(dp1474
g74
(dp1475
sg83
g1469
sg76
(lp1476
g69
(g90
g71
NtRp1477
(dp1478
g74
(dp1479
sg83
g1473
sg76
(lp1480
g69
(g70
g71
NtRp1481
(dp1482
g74
(dp1483
g82
I3
ssg83
g1477
sg76
(lp1484
S'2'
asbasbasbag69
(g85
g71
NtRp1485
(dp1486
g74
(dp1487
sg83
g1469
sg76
(lp1488
g69
(g90
g71
NtRp1489
(dp1490
g74
(dp1491
sg83
g1485
sg76
(lp1492
g69
(g70
g71
NtRp1493
(dp1494
g74
(dp1495
g82
I3
ssg83
g1489
sg76
(lp1496
S'4'
asbasbasbag69
(g85
g71
NtRp1497
(dp1498
g74
(dp1499
sg83
g1469
sg76
(lp1500
g69
(g90
g71
NtRp1501
(dp1502
g74
(dp1503
sg83
g1497
sg76
(lp1504
g69
(g70
g71
NtRp1505
(dp1506
g74
(dp1507
g82
I3
ssg83
g1501
sg76
(lp1508
S'1'
asbasbasbag69
(g85
g71
NtRp1509
(dp1510
g74
(dp1511
sg83
g1469
sg76
(lp1512
g69
(g90
g71
NtRp1513
(dp1514
g74
(dp1515
sg83
g1509
sg76
(lp1516
g69
(g70
g71
NtRp1517
(dp1518
g74
(dp1519
g82
I3
ssg83
g1513
sg76
(lp1520
S'alpha.2'
p1521
asbasbasbag69
(g85
g71
NtRp1522
(dp1523
g74
(dp1524
sg83
g1469
sg76
(lp1525
g69
(g90
g71
NtRp1526
(dp1527
g74
(dp1528
sg83
g1522
sg76
(lp1529
g69
(g70
g71
NtRp1530
(dp1531
g74
(dp1532
g82
I3
ssg83
g1526
sg76
(lp1533
S'datetime.datetime(2013, 1, 10, 15, 12, 56)'
p1534
asbasbasbasbasbasbasbag69
(g85
g71
NtRp1535
(dp1536
g74
(dp1537
sg83
g699
sg76
(lp1538
g69
(g90
g71
NtRp1539
(dp1540
g74
(dp1541
g94
g95
ssg83
g1535
sg76
(lp1542
S'wsgi_errors'
p1543
asbag69
(g90
g71
NtRp1544
(dp1545
g74
(dp1546
g101
g102
ssg83
g1535
sg76
(lp1547
S':'
asbag69
(g90
g71
NtRp1548
(dp1549
g74
(dp1550
sg83
g1535
sg76
(lp1551
g69
(g70
g71
NtRp1552
(dp1553
g74
(dp1554
g82
I4
ssg83
g1548
sg76
(lp1555
S"<open file '<stderr>', mode 'w' at 0x7f58f4d90270>"
p1556
asbasbasbag69
(g85
g71
NtRp1557
(dp1558
g74
(dp1559
sg83
g699
sg76
(lp1560
g69
(g90
g71
NtRp1561
(dp1562
g74
(dp1563
g94
g95
ssg83
g1557
sg76
(lp1564
S'wsgi_file_wrapper'
p1565
asbag69
(g90
g71
NtRp1566
(dp1567
g74
(dp1568
g101
g102
ssg83
g1557
sg76
(lp1569
S':'
asbag69
(g90
g71
NtRp1570
(dp1571
g74
(dp1572
sg83
g1557
sg76
(lp1573
g69
(g70
g71
NtRp1574
(dp1575
g74
(dp1576
g82
I4
ssg83
g1570
sg76
(lp1577
S'<class wsgiref.util.FileWrapper at 0x2d0c2c0>'
p1578
asbasbasbag69
(g85
g71
NtRp1579
(dp1580
g74
(dp1581
sg83
g699
sg76
(lp1582
g69
(g90
g71
NtRp1583
(dp1584
g74
(dp1585
g94
g95
ssg83
g1579
sg76
(lp1586
S'wsgi_input'
p1587
asbag69
(g90
g71
NtRp1588
(dp1589
g74
(dp1590
g101
g102
ssg83
g1579
sg76
(lp1591
S':'
asbag69
(g90
g71
NtRp1592
(dp1593
g74
(dp1594
sg83
g1579
sg76
(lp1595
g69
(g70
g71
NtRp1596
(dp1597
g74
(dp1598
g82
I4
ssg83
g1592
sg76
(lp1599
S'<socket._fileobject object at 0x360fa50>'
p1600
asbasbasbag69
(g85
g71
NtRp1601
(dp1602
g74
(dp1603
sg83
g699
sg76
(lp1604
g69
(g90
g71
NtRp1605
(dp1606
g74
(dp1607
g94
g95
ssg83
g1601
sg76
(lp1608
S'wsgi_multiprocess'
p1609
asbag69
(g90
g71
NtRp1610
(dp1611
g74
(dp1612
g101
g102
ssg83
g1601
sg76
(lp1613
S':'
asbag69
(g90
g71
NtRp1614
(dp1615
g74
(dp1616
sg83
g1601
sg76
(lp1617
g69
(g70
g71
NtRp1618
(dp1619
g74
(dp1620
g82
I4
ssg83
g1614
sg76
(lp1621
g112
asbasbasbag69
(g85
g71
NtRp1622
(dp1623
g74
(dp1624
sg83
g699
sg76
(lp1625
g69
(g90
g71
NtRp1626
(dp1627
g74
(dp1628
g94
g95
ssg83
g1622
sg76
(lp1629
S'wsgi_multithread'
p1630
asbag69
(g90
g71
NtRp1631
(dp1632
g74
(dp1633
g101
g102
ssg83
g1622
sg76
(lp1634
S':'
asbag69
(g90
g71
NtRp1635
(dp1636
g74
(dp1637
sg83
g1622
sg76
(lp1638
g69
(g70
g71
NtRp1639
(dp1640
g74
(dp1641
g82
I4
ssg83
g1635
sg76
(lp1642
S'True'
p1643
asbasbasbag69
(g85
g71
NtRp1644
(dp1645
g74
(dp1646
sg83
g699
sg76
(lp1647
g69
(g90
g71
NtRp1648
(dp1649
g74
(dp1650
g94
g95
ssg83
g1644
sg76
(lp1651
S'wsgi_run_once'
p1652
asbag69
(g90
g71
NtRp1653
(dp1654
g74
(dp1655
g101
g102
ssg83
g1644
sg76
(lp1656
S':'
asbag69
(g90
g71
NtRp1657
(dp1658
g74
(dp1659
sg83
g1644
sg76
(lp1660
g69
(g70
g71
NtRp1661
(dp1662
g74
(dp1663
g82
I4
ssg83
g1657
sg76
(lp1664
g112
asbasbasbag69
(g85
g71
NtRp1665
(dp1666
g74
(dp1667
sg83
g699
sg76
(lp1668
g69
(g90
g71
NtRp1669
(dp1670
g74
(dp1671
g94
g95
ssg83
g1665
sg76
(lp1672
S'wsgi_url_scheme'
p1673
asbag69
(g90
g71
NtRp1674
(dp1675
g74
(dp1676
g101
g102
ssg83
g1665
sg76
(lp1677
S':'
asbag69
(g90
g71
NtRp1678
(dp1679
g74
(dp1680
sg83
g1665
sg76
(lp1681
g69
(g70
g71
NtRp1682
(dp1683
g74
(dp1684
g82
I4
ssg83
g1678
sg76
(lp1685
S'http'
p1686
asbasbasbag69
(g85
g71
NtRp1687
(dp1688
g74
(dp1689
sg83
g699
sg76
(lp1690
g69
(g90
g71
NtRp1691
(dp1692
g74
(dp1693
g94
g95
ssg83
g1687
sg76
(lp1694
S'wsgi_version'
p1695
asbag69
(g90
g71
NtRp1696
(dp1697
g74
(dp1698
g101
g102
ssg83
g1687
sg76
(lp1699
S':'
asbag69
(g90
g71
NtRp1700
(dp1701
g74
(dp1702
sg83
g1687
sg76
(lp1703
g69
(g70
g71
NtRp1704
(dp1705
g74
(dp1706
g82
I4
ssg83
g1700
sg76
(lp1707
g69
(g78
g71
NtRp1708
(dp1709
g74
(dp1710
g82
I3
ssg83
Nsg76
(lp1711
g69
(g85
g71
NtRp1712
(dp1713
g74
(dp1714
sg83
g1708
sg76
(lp1715
g69
(g90
g71
NtRp1716
(dp1717
g74
(dp1718
sg83
g1712
sg76
(lp1719
g69
(g70
g71
NtRp1720
(dp1721
g74
(dp1722
g82
I3
ssg83
g1716
sg76
(lp1723
S'1'
asbasbasbag69
(g85
g71
NtRp1724
(dp1725
g74
(dp1726
sg83
g1708
sg76
(lp1727
g69
(g90
g71
NtRp1728
(dp1729
g74
(dp1730
sg83
g1724
sg76
(lp1731
g69
(g70
g71
NtRp1732
(dp1733
g74
(dp1734
g82
I3
ssg83
g1728
sg76
(lp1735
S'0'
asbasbasbasbasbasbasbasbasbasbasbag69
(g85
g71
NtRp1736
(dp1737
g74
(dp1738
sg83
g79
sg76
(lp1739
g69
(g90
g71
NtRp1740
(dp1741
g74
(dp1742
g94
g95
ssg83
g1736
sg76
(lp1743
S'extension'
p1744
asbag69
(g90
g71
NtRp1745
(dp1746
g74
(dp1747
g101
g102
ssg83
g1736
sg76
(lp1748
S':'
asbag69
(g90
g71
NtRp1749
(dp1750
g74
(dp1751
sg83
g1736
sg76
(lp1752
g69
(g70
g71
NtRp1753
(dp1754
g74
(dp1755
g82
I5
ssg83
g1749
sg76
(lp1756
S'html'
p1757
asbasbasbag69
(g85
g71
NtRp1758
(dp1759
g74
(dp1760
sg83
g79
sg76
(lp1761
g69
(g90
g71
NtRp1762
(dp1763
g74
(dp1764
g94
g95
ssg83
g1758
sg76
(lp1765
S'folder'
p1766
asbag69
(g90
g71
NtRp1767
(dp1768
g74
(dp1769
g101
g102
ssg83
g1758
sg76
(lp1770
S':'
asbag69
(g90
g71
NtRp1771
(dp1772
g74
(dp1773
sg83
g1758
sg76
(lp1774
g69
(g70
g71
NtRp1775
(dp1776
g74
(dp1777
g82
I5
ssg83
g1771
sg76
(lp1778
S'/home/rochacbruno/Dropbox/stoodos/w2p/web2py/applications/blog/'
p1779
asbasbasbag69
(g85
g71
NtRp1780
(dp1781
g74
(dp1782
sg83
g79
sg76
(lp1783
g69
(g90
g71
NtRp1784
(dp1785
g74
(dp1786
g94
g95
ssg83
g1780
sg76
(lp1787
S'function'
p1788
asbag69
(g90
g71
NtRp1789
(dp1790
g74
(dp1791
g101
g102
ssg83
g1780
sg76
(lp1792
S':'
asbag69
(g90
g71
NtRp1793
(dp1794
g74
(dp1795
sg83
g1780
sg76
(lp1796
g69
(g70
g71
NtRp1797
(dp1798
g74
(dp1799
g82
I5
ssg83
g1793
sg76
(lp1800
S'user'
p1801
asbasbasbag69
(g85
g71
NtRp1802
(dp1803
g74
(dp1804
sg83
g79
sg76
(lp1805
g69
(g90
g71
NtRp1806
(dp1807
g74
(dp1808
g94
g95
ssg83
g1802
sg76
(lp1809
S'get_vars'
p1810
asbag69
(g90
g71
NtRp1811
(dp1812
g74
(dp1813
g101
g102
ssg83
g1802
sg76
(lp1814
S':'
asbag69
(g90
g71
NtRp1815
(dp1816
g74
(dp1817
sg83
g1802
sg76
(lp1818
g69
(g70
g71
NtRp1819
(dp1820
g74
(dp1821
g82
I5
ssg83
g1815
sg76
(lp1822
g69
(g78
g71
NtRp1823
(dp1824
g74
(dp1825
g82
I4
ssg83
Nsg76
(lp1826
sbasbasbasbag69
(g85
g71
NtRp1827
(dp1828
g74
(dp1829
sg83
g79
sg76
(lp1830
g69
(g90
g71
NtRp1831
(dp1832
g74
(dp1833
g94
g95
ssg83
g1827
sg76
(lp1834
S'global_settings'
p1835
asbag69
(g90
g71
NtRp1836
(dp1837
g74
(dp1838
g101
g102
ssg83
g1827
sg76
(lp1839
S':'
asbag69
(g90
g71
NtRp1840
(dp1841
g74
(dp1842
sg83
g1827
sg76
(lp1843
g69
(g70
g71
NtRp1844
(dp1845
g74
(dp1846
g82
I5
ssg83
g1840
sg76
(lp1847
g69
(g78
g71
NtRp1848
(dp1849
g74
(dp1850
g82
I4
ssg83
Nsg76
(lp1851
g69
(g85
g71
NtRp1852
(dp1853
g74
(dp1854
sg83
g1848
sg76
(lp1855
g69
(g90
g71
NtRp1856
(dp1857
g74
(dp1858
g94
g95
ssg83
g1852
sg76
(lp1859
g711
asbag69
(g90
g71
NtRp1860
(dp1861
g74
(dp1862
g101
g102
ssg83
g1852
sg76
(lp1863
S':'
asbag69
(g90
g71
NtRp1864
(dp1865
g74
(dp1866
sg83
g1852
sg76
(lp1867
g69
(g70
g71
NtRp1868
(dp1869
g74
(dp1870
g82
I4
ssg83
g1864
sg76
(lp1871
S"set(['/home/rochacbruno/Dropbox/stoodos/w2p/web2py/applications/admin/', '/home/rochacbruno/Dropbox/stoodos/w2p/web2py/applications/blog/'])"
p1872
asbasbasbag69
(g85
g71
NtRp1873
(dp1874
g74
(dp1875
sg83
g1848
sg76
(lp1876
g69
(g90
g71
NtRp1877
(dp1878
g74
(dp1879
g94
g95
ssg83
g1873
sg76
(lp1880
g733
asbag69
(g90
g71
NtRp1881
(dp1882
g74
(dp1883
g101
g102
ssg83
g1873
sg76
(lp1884
S':'
asbag69
(g90
g71
NtRp1885
(dp1886
g74
(dp1887
sg83
g1873
sg76
(lp1888
g69
(g70
g71
NtRp1889
(dp1890
g74
(dp1891
g82
I4
ssg83
g1885
sg76
(lp1892
g746
asbasbasbag69
(g85
g71
NtRp1893
(dp1894
g74
(dp1895
sg83
g1848
sg76
(lp1896
g69
(g90
g71
NtRp1897
(dp1898
g74
(dp1899
g94
g95
ssg83
g1893
sg76
(lp1900
g755
asbag69
(g90
g71
NtRp1901
(dp1902
g74
(dp1903
g101
g102
ssg83
g1893
sg76
(lp1904
S':'
asbag69
(g90
g71
NtRp1905
(dp1906
g74
(dp1907
sg83
g1893
sg76
(lp1908
g69
(g70
g71
NtRp1909
(dp1910
g74
(dp1911
g82
I4
ssg83
g1905
sg76
(lp1912
g69
(g78
g71
NtRp1913
(dp1914
g74
(dp1915
g82
I3
ssg83
Nsg76
(lp1916
sbasbasbasbag69
(g85
g71
NtRp1917
(dp1918
g74
(dp1919
sg83
g1848
sg76
(lp1920
g69
(g90
g71
NtRp1921
(dp1922
g74
(dp1923
g94
g95
ssg83
g1917
sg76
(lp1924
g780
asbag69
(g90
g71
NtRp1925
(dp1926
g74
(dp1927
g101
g102
ssg83
g1917
sg76
(lp1928
S':'
asbag69
(g90
g71
NtRp1929
(dp1930
g74
(dp1931
sg83
g1917
sg76
(lp1932
g69
(g70
g71
NtRp1933
(dp1934
g74
(dp1935
g82
I4
ssg83
g1929
sg76
(lp1936
S"<Values at 0x2b7f8c0: {'verbose': False, 'ip': '127.0.0.1', 'with_scheduler': False, 'ips': [], 'shutdown_timeout': 5, 'taskbar': False, 'port': 8000, 'maxthreads': None, 'softcron': False, 'server_name': 'crunchbang', 'bpython': False, 'nogui': False, 'pid_filename': 'httpserver.pid', 'extcron': False, 'runcron': False, 'run_system_tests': False, 'test': None, 'folder': '/home/rochacbruno/Dropbox/stoodos/w2p/web2py', 'config': '', 'minthreads': None, 'winservice': '', 'shell': None, 'run': '', 'log_filename': 'httpserver.log', 'debuglevel': 30, 'args': [''], 'socket_timeout': 5, 'ssl_ca_certificate': None, 'scheduler': None, 'profiler_filename': None, 'ssl_private_key': '', 'scheduler_groups': None, 'password': '1234', 'request_queue_size': 5, 'ssl_certificate': '', 'cronjob': False, 'numthreads': None, 'quiet': False, 'interfaces': None, 'import_models': False, 'timeout': 10, 'plain': False, 'nobanner': False}>"
p1937
asbasbasbag69
(g85
g71
NtRp1938
(dp1939
g74
(dp1940
sg83
g1848
sg76
(lp1941
g69
(g90
g71
NtRp1942
(dp1943
g74
(dp1944
g94
g95
ssg83
g1938
sg76
(lp1945
g802
asbag69
(g90
g71
NtRp1946
(dp1947
g74
(dp1948
g101
g102
ssg83
g1938
sg76
(lp1949
S':'
asbag69
(g90
g71
NtRp1950
(dp1951
g74
(dp1952
sg83
g1938
sg76
(lp1953
g69
(g70
g71
NtRp1954
(dp1955
g74
(dp1956
g82
I4
ssg83
g1950
sg76
(lp1957
S'set([])'
p1958
asbasbasbag69
(g85
g71
NtRp1959
(dp1960
g74
(dp1961
sg83
g1848
sg76
(lp1962
g69
(g90
g71
NtRp1963
(dp1964
g74
(dp1965
g94
g95
ssg83
g1959
sg76
(lp1966
g824
asbag69
(g90
g71
NtRp1967
(dp1968
g74
(dp1969
g101
g102
ssg83
g1959
sg76
(lp1970
S':'
asbag69
(g90
g71
NtRp1971
(dp1972
g74
(dp1973
sg83
g1959
sg76
(lp1974
g69
(g70
g71
NtRp1975
(dp1976
g74
(dp1977
g82
I4
ssg83
g1971
sg76
(lp1978
g112
asbasbasbag69
(g85
g71
NtRp1979
(dp1980
g74
(dp1981
sg83
g1848
sg76
(lp1982
g69
(g90
g71
NtRp1983
(dp1984
g74
(dp1985
g94
g95
ssg83
g1979
sg76
(lp1986
g845
asbag69
(g90
g71
NtRp1987
(dp1988
g74
(dp1989
g101
g102
ssg83
g1979
sg76
(lp1990
S':'
asbag69
(g90
g71
NtRp1991
(dp1992
g74
(dp1993
sg83
g1979
sg76
(lp1994
g69
(g70
g71
NtRp1995
(dp1996
g74
(dp1997
g82
I4
ssg83
g1991
sg76
(lp1998
g858
asbasbasbag69
(g85
g71
NtRp1999
(dp2000
g74
(dp2001
sg83
g1848
sg76
(lp2002
g69
(g90
g71
NtRp2003
(dp2004
g74
(dp2005
g94
g95
ssg83
g1999
sg76
(lp2006
g1043
asbag69
(g90
g71
NtRp2007
(dp2008
g74
(dp2009
g101
g102
ssg83
g1999
sg76
(lp2010
S':'
asbag69
(g90
g71
NtRp2011
(dp2012
g74
(dp2013
sg83
g1999
sg76
(lp2014
g69
(g70
g71
NtRp2015
(dp2016
g74
(dp2017
g82
I4
ssg83
g2011
sg76
(lp2018
g112
asbasbasbag69
(g85
g71
NtRp2019
(dp2020
g74
(dp2021
sg83
g1848
sg76
(lp2022
g69
(g90
g71
NtRp2023
(dp2024
g74
(dp2025
g94
g95
ssg83
g2019
sg76
(lp2026
g1064
asbag69
(g90
g71
NtRp2027
(dp2028
g74
(dp2029
g101
g102
ssg83
g2019
sg76
(lp2030
S':'
asbag69
(g90
g71
NtRp2031
(dp2032
g74
(dp2033
sg83
g2019
sg76
(lp2034
g69
(g70
g71
NtRp2035
(dp2036
g74
(dp2037
g82
I4
ssg83
g2031
sg76
(lp2038
g112
asbasbasbag69
(g85
g71
NtRp2039
(dp2040
g74
(dp2041
sg83
g1848
sg76
(lp2042
g69
(g90
g71
NtRp2043
(dp2044
g74
(dp2045
g94
g95
ssg83
g2039
sg76
(lp2046
g1085
asbag69
(g90
g71
NtRp2047
(dp2048
g74
(dp2049
g101
g102
ssg83
g2039
sg76
(lp2050
S':'
asbag69
(g90
g71
NtRp2051
(dp2052
g74
(dp2053
sg83
g2039
sg76
(lp2054
g69
(g70
g71
NtRp2055
(dp2056
g74
(dp2057
g82
I4
ssg83
g2051
sg76
(lp2058
g69
(g78
g71
NtRp2059
(dp2060
g74
(dp2061
g82
I3
ssg83
Nsg76
(lp2062
g69
(g85
g71
NtRp2063
(dp2064
g74
(dp2065
sg83
g2059
sg76
(lp2066
g69
(g90
g71
NtRp2067
(dp2068
g74
(dp2069
sg83
g2063
sg76
(lp2070
g69
(g70
g71
NtRp2071
(dp2072
g74
(dp2073
g82
I3
ssg83
g2067
sg76
(lp2074
g1114
asbasbasbag69
(g85
g71
NtRp2075
(dp2076
g74
(dp2077
sg83
g2059
sg76
(lp2078
g69
(g90
g71
NtRp2079
(dp2080
g74
(dp2081
sg83
g2075
sg76
(lp2082
g69
(g70
g71
NtRp2083
(dp2084
g74
(dp2085
g82
I3
ssg83
g2079
sg76
(lp2086
g1127
asbasbasbag69
(g85
g71
NtRp2087
(dp2088
g74
(dp2089
sg83
g2059
sg76
(lp2090
g69
(g90
g71
NtRp2091
(dp2092
g74
(dp2093
sg83
g2087
sg76
(lp2094
g69
(g70
g71
NtRp2095
(dp2096
g74
(dp2097
g82
I3
ssg83
g2091
sg76
(lp2098
g1140
asbasbasbag69
(g85
g71
NtRp2099
(dp2100
g74
(dp2101
sg83
g2059
sg76
(lp2102
g69
(g90
g71
NtRp2103
(dp2104
g74
(dp2105
sg83
g2099
sg76
(lp2106
g69
(g70
g71
NtRp2107
(dp2108
g74
(dp2109
g82
I3
ssg83
g2103
sg76
(lp2110
g1153
asbasbasbag69
(g85
g71
NtRp2111
(dp2112
g74
(dp2113
sg83
g2059
sg76
(lp2114
g69
(g90
g71
NtRp2115
(dp2116
g74
(dp2117
sg83
g2111
sg76
(lp2118
g69
(g70
g71
NtRp2119
(dp2120
g74
(dp2121
g82
I3
ssg83
g2115
sg76
(lp2122
g1166
asbasbasbasbasbasbasbag69
(g85
g71
NtRp2123
(dp2124
g74
(dp2125
sg83
g1848
sg76
(lp2126
g69
(g90
g71
NtRp2127
(dp2128
g74
(dp2129
g94
g95
ssg83
g2123
sg76
(lp2130
g1456
asbag69
(g90
g71
NtRp2131
(dp2132
g74
(dp2133
g101
g102
ssg83
g2123
sg76
(lp2134
S':'
asbag69
(g90
g71
NtRp2135
(dp2136
g74
(dp2137
sg83
g2123
sg76
(lp2138
g69
(g70
g71
NtRp2139
(dp2140
g74
(dp2141
g82
I4
ssg83
g2135
sg76
(lp2142
g69
(g78
g71
NtRp2143
(dp2144
g74
(dp2145
g82
I3
ssg83
Nsg76
(lp2146
g69
(g85
g71
NtRp2147
(dp2148
g74
(dp2149
sg83
g2143
sg76
(lp2150
g69
(g90
g71
NtRp2151
(dp2152
g74
(dp2153
sg83
g2147
sg76
(lp2154
g69
(g70
g71
NtRp2155
(dp2156
g74
(dp2157
g82
I3
ssg83
g2151
sg76
(lp2158
S'2'
asbasbasbag69
(g85
g71
NtRp2159
(dp2160
g74
(dp2161
sg83
g2143
sg76
(lp2162
g69
(g90
g71
NtRp2163
(dp2164
g74
(dp2165
sg83
g2159
sg76
(lp2166
g69
(g70
g71
NtRp2167
(dp2168
g74
(dp2169
g82
I3
ssg83
g2163
sg76
(lp2170
S'4'
asbasbasbag69
(g85
g71
NtRp2171
(dp2172
g74
(dp2173
sg83
g2143
sg76
(lp2174
g69
(g90
g71
NtRp2175
(dp2176
g74
(dp2177
sg83
g2171
sg76
(lp2178
g69
(g70
g71
NtRp2179
(dp2180
g74
(dp2181
g82
I3
ssg83
g2175
sg76
(lp2182
S'1'
asbasbasbag69
(g85
g71
NtRp2183
(dp2184
g74
(dp2185
sg83
g2143
sg76
(lp2186
g69
(g90
g71
NtRp2187
(dp2188
g74
(dp2189
sg83
g2183
sg76
(lp2190
g69
(g70
g71
NtRp2191
(dp2192
g74
(dp2193
g82
I3
ssg83
g2187
sg76
(lp2194
g1521
asbasbasbag69
(g85
g71
NtRp2195
(dp2196
g74
(dp2197
sg83
g2143
sg76
(lp2198
g69
(g90
g71
NtRp2199
(dp2200
g74
(dp2201
sg83
g2195
sg76
(lp2202
g69
(g70
g71
NtRp2203
(dp2204
g74
(dp2205
g82
I3
ssg83
g2199
sg76
(lp2206
S'datetime.datetime(2013, 1, 10, 15, 12, 56)'
p2207
asbasbasbasbasbasbasbasbasbasbasbag69
(g85
g71
NtRp2208
(dp2209
g74
(dp2210
sg83
g79
sg76
(lp2211
g69
(g90
g71
NtRp2212
(dp2213
g74
(dp2214
g94
g95
ssg83
g2208
sg76
(lp2215
S'is_https'
p2216
asbag69
(g90
g71
NtRp2217
(dp2218
g74
(dp2219
g101
g102
ssg83
g2208
sg76
(lp2220
S':'
asbag69
(g90
g71
NtRp2221
(dp2222
g74
(dp2223
sg83
g2208
sg76
(lp2224
g69
(g70
g71
NtRp2225
(dp2226
g74
(dp2227
g82
I5
ssg83
g2221
sg76
(lp2228
g112
asbasbasbag69
(g85
g71
NtRp2229
(dp2230
g74
(dp2231
sg83
g79
sg76
(lp2232
g69
(g90
g71
NtRp2233
(dp2234
g74
(dp2235
g94
g95
ssg83
g2229
sg76
(lp2236
S'is_local'
p2237
asbag69
(g90
g71
NtRp2238
(dp2239
g74
(dp2240
g101
g102
ssg83
g2229
sg76
(lp2241
S':'
asbag69
(g90
g71
NtRp2242
(dp2243
g74
(dp2244
sg83
g2229
sg76
(lp2245
g69
(g70
g71
NtRp2246
(dp2247
g74
(dp2248
g82
I5
ssg83
g2242
sg76
(lp2249
g1643
asbasbasbag69
(g85
g71
NtRp2250
(dp2251
g74
(dp2252
sg83
g79
sg76
(lp2253
g69
(g90
g71
NtRp2254
(dp2255
g74
(dp2256
g94
g95
ssg83
g2250
sg76
(lp2257
S'is_restful'
p2258
asbag69
(g90
g71
NtRp2259
(dp2260
g74
(dp2261
g101
g102
ssg83
g2250
sg76
(lp2262
S':'
asbag69
(g90
g71
NtRp2263
(dp2264
g74
(dp2265
sg83
g2250
sg76
(lp2266
g69
(g70
g71
NtRp2267
(dp2268
g74
(dp2269
g82
I5
ssg83
g2263
sg76
(lp2270
g112
asbasbasbag69
(g85
g71
NtRp2271
(dp2272
g74
(dp2273
sg83
g79
sg76
(lp2274
g69
(g90
g71
NtRp2275
(dp2276
g74
(dp2277
g94
g95
ssg83
g2271
sg76
(lp2278
S'now'
p2279
asbag69
(g90
g71
NtRp2280
(dp2281
g74
(dp2282
g101
g102
ssg83
g2271
sg76
(lp2283
S':'
asbag69
(g90
g71
NtRp2284
(dp2285
g74
(dp2286
sg83
g2271
sg76
(lp2287
g69
(g70
g71
NtRp2288
(dp2289
g74
(dp2290
g82
I5
ssg83
g2284
sg76
(lp2291
S'datetime.datetime(2013, 1, 17, 21, 45, 35, 689432)'
p2292
asbasbasbag69
(g85
g71
NtRp2293
(dp2294
g74
(dp2295
sg83
g79
sg76
(lp2296
g69
(g90
g71
NtRp2297
(dp2298
g74
(dp2299
g94
g95
ssg83
g2293
sg76
(lp2300
S'post_vars'
p2301
asbag69
(g90
g71
NtRp2302
(dp2303
g74
(dp2304
g101
g102
ssg83
g2293
sg76
(lp2305
S':'
asbag69
(g90
g71
NtRp2306
(dp2307
g74
(dp2308
sg83
g2293
sg76
(lp2309
g69
(g70
g71
NtRp2310
(dp2311
g74
(dp2312
g82
I5
ssg83
g2306
sg76
(lp2313
g69
(g78
g71
NtRp2314
(dp2315
g74
(dp2316
g82
I4
ssg83
Nsg76
(lp2317
sbasbasbasbag69
(g85
g71
NtRp2318
(dp2319
g74
(dp2320
sg83
g79
sg76
(lp2321
g69
(g90
g71
NtRp2322
(dp2323
g74
(dp2324
g94
g95
ssg83
g2318
sg76
(lp2325
S'url'
p2326
asbag69
(g90
g71
NtRp2327
(dp2328
g74
(dp2329
g101
g102
ssg83
g2318
sg76
(lp2330
S':'
asbag69
(g90
g71
NtRp2331
(dp2332
g74
(dp2333
sg83
g2318
sg76
(lp2334
g69
(g70
g71
NtRp2335
(dp2336
g74
(dp2337
g82
I5
ssg83
g2331
sg76
(lp2338
g1188
asbasbasbag69
(g85
g71
NtRp2339
(dp2340
g74
(dp2341
sg83
g79
sg76
(lp2342
g69
(g90
g71
NtRp2343
(dp2344
g74
(dp2345
g94
g95
ssg83
g2339
sg76
(lp2346
S'utcnow'
p2347
asbag69
(g90
g71
NtRp2348
(dp2349
g74
(dp2350
g101
g102
ssg83
g2339
sg76
(lp2351
S':'
asbag69
(g90
g71
NtRp2352
(dp2353
g74
(dp2354
sg83
g2339
sg76
(lp2355
g69
(g70
g71
NtRp2356
(dp2357
g74
(dp2358
g82
I5
ssg83
g2352
sg76
(lp2359
S'datetime.datetime(2013, 1, 17, 23, 45, 35, 689473)'
p2360
asbasbasbag69
(g85
g71
NtRp2361
(dp2362
g74
(dp2363
sg83
g79
sg76
(lp2364
g69
(g90
g71
NtRp2365
(dp2366
g74
(dp2367
g94
g95
ssg83
g2361
sg76
(lp2368
S'uuid'
p2369
asbag69
(g90
g71
NtRp2370
(dp2371
g74
(dp2372
g101
g102
ssg83
g2361
sg76
(lp2373
S':'
asbag69
(g90
g71
NtRp2374
(dp2375
g74
(dp2376
sg83
g2361
sg76
(lp2377
g69
(g70
g71
NtRp2378
(dp2379
g74
(dp2380
g82
I5
ssg83
g2374
sg76
(lp2381
S'blog/127.0.0.1.2013-01-17.21-45-35.32b3bea2-403f-4dcc-98e3-75a6b8b78d0d'
p2382
asbasbasbag69
(g85
g71
NtRp2383
(dp2384
g74
(dp2385
sg83
g79
sg76
(lp2386
g69
(g90
g71
NtRp2387
(dp2388
g74
(dp2389
g94
g95
ssg83
g2383
sg76
(lp2390
S'vars'
p2391
asbag69
(g90
g71
NtRp2392
(dp2393
g74
(dp2394
g101
g102
ssg83
g2383
sg76
(lp2395
S':'
asbag69
(g90
g71
NtRp2396
(dp2397
g74
(dp2398
sg83
g2383
sg76
(lp2399
g69
(g70
g71
NtRp2400
(dp2401
g74
(dp2402
g82
I5
ssg83
g2396
sg76
(lp2403
g69
(g78
g71
NtRp2404
(dp2405
g74
(dp2406
g82
I4
ssg83
Nsg76
(lp2407
sbasbasbasbag69
(g85
g71
NtRp2408
(dp2409
g74
(dp2410
sg83
g79
sg76
(lp2411
g69
(g90
g71
NtRp2412
(dp2413
g74
(dp2414
g94
g95
ssg83
g2408
sg76
(lp2415
S'wsgi'
p2416
asbag69
(g90
g71
NtRp2417
(dp2418
g74
(dp2419
g101
g102
ssg83
g2408
sg76
(lp2420
S':'
asbag69
(g90
g71
NtRp2421
(dp2422
g74
(dp2423
sg83
g2408
sg76
(lp2424
g69
(g70
g71
NtRp2425
(dp2426
g74
(dp2427
g82
I5
ssg83
g2421
sg76
(lp2428
g69
(g78
g71
NtRp2429
(dp2430
g74
(dp2431
g82
I4
ssg83
Nsg76
(lp2432
g69
(g85
g71
NtRp2433
(dp2434
g74
(dp2435
sg83
g2429
sg76
(lp2436
g69
(g90
g71
NtRp2437
(dp2438
g74
(dp2439
g94
g95
ssg83
g2433
sg76
(lp2440
S'environ'
p2441
asbag69
(g90
g71
NtRp2442
(dp2443
g74
(dp2444
g101
g102
ssg83
g2433
sg76
(lp2445
S':'
asbag69
(g90
g71
NtRp2446
(dp2447
g74
(dp2448
sg83
g2433
sg76
(lp2449
g69
(g70
g71
NtRp2450
(dp2451
g74
(dp2452
g82
I4
ssg83
g2446
sg76
(lp2453
g69
(g78
g71
NtRp2454
(dp2455
g74
(dp2456
g82
I3
ssg83
Nsg76
(lp2457
g69
(g85
g71
NtRp2458
(dp2459
g74
(dp2460
sg83
g2454
sg76
(lp2461
g69
(g90
g71
NtRp2462
(dp2463
g74
(dp2464
g94
g95
ssg83
g2458
sg76
(lp2465
S'HTTP_ACCEPT'
p2466
asbag69
(g90
g71
NtRp2467
(dp2468
g74
(dp2469
g101
g102
ssg83
g2458
sg76
(lp2470
S':'
asbag69
(g90
g71
NtRp2471
(dp2472
g74
(dp2473
sg83
g2458
sg76
(lp2474
g69
(g70
g71
NtRp2475
(dp2476
g74
(dp2477
g82
I3
ssg83
g2471
sg76
(lp2478
g880
asbasbasbag69
(g85
g71
NtRp2479
(dp2480
g74
(dp2481
sg83
g2454
sg76
(lp2482
g69
(g90
g71
NtRp2483
(dp2484
g74
(dp2485
g94
g95
ssg83
g2479
sg76
(lp2486
S'HTTP_ACCEPT_CHARSET'
p2487
asbag69
(g90
g71
NtRp2488
(dp2489
g74
(dp2490
g101
g102
ssg83
g2479
sg76
(lp2491
S':'
asbag69
(g90
g71
NtRp2492
(dp2493
g74
(dp2494
sg83
g2479
sg76
(lp2495
g69
(g70
g71
NtRp2496
(dp2497
g74
(dp2498
g82
I3
ssg83
g2492
sg76
(lp2499
g902
asbasbasbag69
(g85
g71
NtRp2500
(dp2501
g74
(dp2502
sg83
g2454
sg76
(lp2503
g69
(g90
g71
NtRp2504
(dp2505
g74
(dp2506
g94
g95
ssg83
g2500
sg76
(lp2507
S'HTTP_ACCEPT_ENCODING'
p2508
asbag69
(g90
g71
NtRp2509
(dp2510
g74
(dp2511
g101
g102
ssg83
g2500
sg76
(lp2512
S':'
asbag69
(g90
g71
NtRp2513
(dp2514
g74
(dp2515
sg83
g2500
sg76
(lp2516
g69
(g70
g71
NtRp2517
(dp2518
g74
(dp2519
g82
I3
ssg83
g2513
sg76
(lp2520
g924
asbasbasbag69
(g85
g71
NtRp2521
(dp2522
g74
(dp2523
sg83
g2454
sg76
(lp2524
g69
(g90
g71
NtRp2525
(dp2526
g74
(dp2527
g94
g95
ssg83
g2521
sg76
(lp2528
S'HTTP_ACCEPT_LANGUAGE'
p2529
asbag69
(g90
g71
NtRp2530
(dp2531
g74
(dp2532
g101
g102
ssg83
g2521
sg76
(lp2533
S':'
asbag69
(g90
g71
NtRp2534
(dp2535
g74
(dp2536
sg83
g2521
sg76
(lp2537
g69
(g70
g71
NtRp2538
(dp2539
g74
(dp2540
g82
I3
ssg83
g2534
sg76
(lp2541
g946
asbasbasbag69
(g85
g71
NtRp2542
(dp2543
g74
(dp2544
sg83
g2454
sg76
(lp2545
g69
(g90
g71
NtRp2546
(dp2547
g74
(dp2548
g94
g95
ssg83
g2542
sg76
(lp2549
S'HTTP_CONNECTION'
p2550
asbag69
(g90
g71
NtRp2551
(dp2552
g74
(dp2553
g101
g102
ssg83
g2542
sg76
(lp2554
S':'
asbag69
(g90
g71
NtRp2555
(dp2556
g74
(dp2557
sg83
g2542
sg76
(lp2558
g69
(g70
g71
NtRp2559
(dp2560
g74
(dp2561
g82
I3
ssg83
g2555
sg76
(lp2562
g968
asbasbasbag69
(g85
g71
NtRp2563
(dp2564
g74
(dp2565
sg83
g2454
sg76
(lp2566
g69
(g90
g71
NtRp2567
(dp2568
g74
(dp2569
g94
g95
ssg83
g2563
sg76
(lp2570
S'HTTP_COOKIE'
p2571
asbag69
(g90
g71
NtRp2572
(dp2573
g74
(dp2574
g101
g102
ssg83
g2563
sg76
(lp2575
S':'
asbag69
(g90
g71
NtRp2576
(dp2577
g74
(dp2578
sg83
g2563
sg76
(lp2579
g69
(g70
g71
NtRp2580
(dp2581
g74
(dp2582
g82
I3
ssg83
g2576
sg76
(lp2583
g990
asbasbasbag69
(g85
g71
NtRp2584
(dp2585
g74
(dp2586
sg83
g2454
sg76
(lp2587
g69
(g90
g71
NtRp2588
(dp2589
g74
(dp2590
g94
g95
ssg83
g2584
sg76
(lp2591
S'HTTP_HOST'
p2592
asbag69
(g90
g71
NtRp2593
(dp2594
g74
(dp2595
g101
g102
ssg83
g2584
sg76
(lp2596
S':'
asbag69
(g90
g71
NtRp2597
(dp2598
g74
(dp2599
sg83
g2584
sg76
(lp2600
g69
(g70
g71
NtRp2601
(dp2602
g74
(dp2603
g82
I3
ssg83
g2597
sg76
(lp2604
g1012
asbasbasbag69
(g85
g71
NtRp2605
(dp2606
g74
(dp2607
sg83
g2454
sg76
(lp2608
g69
(g90
g71
NtRp2609
(dp2610
g74
(dp2611
g94
g95
ssg83
g2605
sg76
(lp2612
S'HTTP_USER_AGENT'
p2613
asbag69
(g90
g71
NtRp2614
(dp2615
g74
(dp2616
g101
g102
ssg83
g2605
sg76
(lp2617
S':'
asbag69
(g90
g71
NtRp2618
(dp2619
g74
(dp2620
sg83
g2605
sg76
(lp2621
g69
(g70
g71
NtRp2622
(dp2623
g74
(dp2624
g82
I3
ssg83
g2618
sg76
(lp2625
g1034
asbasbasbag69
(g85
g71
NtRp2626
(dp2627
g74
(dp2628
sg83
g2454
sg76
(lp2629
g69
(g90
g71
NtRp2630
(dp2631
g74
(dp2632
g94
g95
ssg83
g2626
sg76
(lp2633
S'PATH_INFO'
p2634
asbag69
(g90
g71
NtRp2635
(dp2636
g74
(dp2637
g101
g102
ssg83
g2626
sg76
(lp2638
S':'
asbag69
(g90
g71
NtRp2639
(dp2640
g74
(dp2641
sg83
g2626
sg76
(lp2642
g69
(g70
g71
NtRp2643
(dp2644
g74
(dp2645
g82
I3
ssg83
g2639
sg76
(lp2646
g1188
asbasbasbag69
(g85
g71
NtRp2647
(dp2648
g74
(dp2649
sg83
g2454
sg76
(lp2650
g69
(g90
g71
NtRp2651
(dp2652
g74
(dp2653
g94
g95
ssg83
g2647
sg76
(lp2654
S'QUERY_STRING'
p2655
asbag69
(g90
g71
NtRp2656
(dp2657
g74
(dp2658
g101
g102
ssg83
g2647
sg76
(lp2659
S':'
asbag69
(g90
g71
NtRp2660
(dp2661
g74
(dp2662
sg83
g2647
sg76
(lp2663
g69
(g70
g71
NtRp2664
(dp2665
g74
(dp2666
g82
I3
ssg83
g2660
sg76
(lp2667
S''
asbasbasbag69
(g85
g71
NtRp2668
(dp2669
g74
(dp2670
sg83
g2454
sg76
(lp2671
g69
(g90
g71
NtRp2672
(dp2673
g74
(dp2674
g94
g95
ssg83
g2668
sg76
(lp2675
S'REMOTE_ADDR'
p2676
asbag69
(g90
g71
NtRp2677
(dp2678
g74
(dp2679
g101
g102
ssg83
g2668
sg76
(lp2680
S':'
asbag69
(g90
g71
NtRp2681
(dp2682
g74
(dp2683
sg83
g2668
sg76
(lp2684
g69
(g70
g71
NtRp2685
(dp2686
g74
(dp2687
g82
I3
ssg83
g2681
sg76
(lp2688
g250
asbasbasbag69
(g85
g71
NtRp2689
(dp2690
g74
(dp2691
sg83
g2454
sg76
(lp2692
g69
(g90
g71
NtRp2693
(dp2694
g74
(dp2695
g94
g95
ssg83
g2689
sg76
(lp2696
S'REMOTE_PORT'
p2697
asbag69
(g90
g71
NtRp2698
(dp2699
g74
(dp2700
g101
g102
ssg83
g2689
sg76
(lp2701
S':'
asbag69
(g90
g71
NtRp2702
(dp2703
g74
(dp2704
sg83
g2689
sg76
(lp2705
g69
(g70
g71
NtRp2706
(dp2707
g74
(dp2708
g82
I3
ssg83
g2702
sg76
(lp2709
g1252
asbasbasbag69
(g85
g71
NtRp2710
(dp2711
g74
(dp2712
sg83
g2454
sg76
(lp2713
g69
(g90
g71
NtRp2714
(dp2715
g74
(dp2716
g94
g95
ssg83
g2710
sg76
(lp2717
S'REQUEST_METHOD'
p2718
asbag69
(g90
g71
NtRp2719
(dp2720
g74
(dp2721
g101
g102
ssg83
g2710
sg76
(lp2722
S':'
asbag69
(g90
g71
NtRp2723
(dp2724
g74
(dp2725
sg83
g2710
sg76
(lp2726
g69
(g70
g71
NtRp2727
(dp2728
g74
(dp2729
g82
I3
ssg83
g2723
sg76
(lp2730
g1274
asbasbasbag69
(g85
g71
NtRp2731
(dp2732
g74
(dp2733
sg83
g2454
sg76
(lp2734
g69
(g90
g71
NtRp2735
(dp2736
g74
(dp2737
g94
g95
ssg83
g2731
sg76
(lp2738
S'REQUEST_URI'
p2739
asbag69
(g90
g71
NtRp2740
(dp2741
g74
(dp2742
g101
g102
ssg83
g2731
sg76
(lp2743
S':'
asbag69
(g90
g71
NtRp2744
(dp2745
g74
(dp2746
sg83
g2731
sg76
(lp2747
g69
(g70
g71
NtRp2748
(dp2749
g74
(dp2750
g82
I3
ssg83
g2744
sg76
(lp2751
g1296
asbasbasbag69
(g85
g71
NtRp2752
(dp2753
g74
(dp2754
sg83
g2454
sg76
(lp2755
g69
(g90
g71
NtRp2756
(dp2757
g74
(dp2758
g94
g95
ssg83
g2752
sg76
(lp2759
S'SCRIPT_NAME'
p2760
asbag69
(g90
g71
NtRp2761
(dp2762
g74
(dp2763
g101
g102
ssg83
g2752
sg76
(lp2764
S':'
asbag69
(g90
g71
NtRp2765
(dp2766
g74
(dp2767
sg83
g2752
sg76
(lp2768
g69
(g70
g71
NtRp2769
(dp2770
g74
(dp2771
g82
I3
ssg83
g2765
sg76
(lp2772
S''
asbasbasbag69
(g85
g71
NtRp2773
(dp2774
g74
(dp2775
sg83
g2454
sg76
(lp2776
g69
(g90
g71
NtRp2777
(dp2778
g74
(dp2779
g94
g95
ssg83
g2773
sg76
(lp2780
S'SERVER_NAME'
p2781
asbag69
(g90
g71
NtRp2782
(dp2783
g74
(dp2784
g101
g102
ssg83
g2773
sg76
(lp2785
S':'
asbag69
(g90
g71
NtRp2786
(dp2787
g74
(dp2788
sg83
g2773
sg76
(lp2789
g69
(g70
g71
NtRp2790
(dp2791
g74
(dp2792
g82
I3
ssg83
g2786
sg76
(lp2793
g1339
asbasbasbag69
(g85
g71
NtRp2794
(dp2795
g74
(dp2796
sg83
g2454
sg76
(lp2797
g69
(g90
g71
NtRp2798
(dp2799
g74
(dp2800
g94
g95
ssg83
g2794
sg76
(lp2801
S'SERVER_PORT'
p2802
asbag69
(g90
g71
NtRp2803
(dp2804
g74
(dp2805
g101
g102
ssg83
g2794
sg76
(lp2806
S':'
asbag69
(g90
g71
NtRp2807
(dp2808
g74
(dp2809
sg83
g2794
sg76
(lp2810
g69
(g70
g71
NtRp2811
(dp2812
g74
(dp2813
g82
I3
ssg83
g2807
sg76
(lp2814
g1361
asbasbasbag69
(g85
g71
NtRp2815
(dp2816
g74
(dp2817
sg83
g2454
sg76
(lp2818
g69
(g90
g71
NtRp2819
(dp2820
g74
(dp2821
g94
g95
ssg83
g2815
sg76
(lp2822
S'SERVER_PROTOCOL'
p2823
asbag69
(g90
g71
NtRp2824
(dp2825
g74
(dp2826
g101
g102
ssg83
g2815
sg76
(lp2827
S':'
asbag69
(g90
g71
NtRp2828
(dp2829
g74
(dp2830
sg83
g2815
sg76
(lp2831
g69
(g70
g71
NtRp2832
(dp2833
g74
(dp2834
g82
I3
ssg83
g2828
sg76
(lp2835
g1383
asbasbasbag69
(g85
g71
NtRp2836
(dp2837
g74
(dp2838
sg83
g2454
sg76
(lp2839
g69
(g90
g71
NtRp2840
(dp2841
g74
(dp2842
g94
g95
ssg83
g2836
sg76
(lp2843
S'SERVER_SOFTWARE'
p2844
asbag69
(g90
g71
NtRp2845
(dp2846
g74
(dp2847
g101
g102
ssg83
g2836
sg76
(lp2848
S':'
asbag69
(g90
g71
NtRp2849
(dp2850
g74
(dp2851
sg83
g2836
sg76
(lp2852
g69
(g70
g71
NtRp2853
(dp2854
g74
(dp2855
g82
I3
ssg83
g2849
sg76
(lp2856
g1405
asbasbasbag69
(g85
g71
NtRp2857
(dp2858
g74
(dp2859
sg83
g2454
sg76
(lp2860
g69
(g90
g71
NtRp2861
(dp2862
g74
(dp2863
g94
g95
ssg83
g2857
sg76
(lp2864
S'WEB2PY_ORIGINAL_URI'
p2865
asbag69
(g90
g71
NtRp2866
(dp2867
g74
(dp2868
g101
g102
ssg83
g2857
sg76
(lp2869
S':'
asbag69
(g90
g71
NtRp2870
(dp2871
g74
(dp2872
sg83
g2857
sg76
(lp2873
g69
(g70
g71
NtRp2874
(dp2875
g74
(dp2876
g82
I3
ssg83
g2870
sg76
(lp2877
g1188
asbasbasbag69
(g85
g71
NtRp2878
(dp2879
g74
(dp2880
sg83
g2454
sg76
(lp2881
g69
(g90
g71
NtRp2882
(dp2883
g74
(dp2884
g94
g95
ssg83
g2878
sg76
(lp2885
S'wsgi.errors'
p2886
asbag69
(g90
g71
NtRp2887
(dp2888
g74
(dp2889
g101
g102
ssg83
g2878
sg76
(lp2890
S':'
asbag69
(g90
g71
NtRp2891
(dp2892
g74
(dp2893
sg83
g2878
sg76
(lp2894
g69
(g70
g71
NtRp2895
(dp2896
g74
(dp2897
g82
I3
ssg83
g2891
sg76
(lp2898
S"<open file '<stderr>', mode 'w' at 0x7f58f4d90270>"
p2899
asbasbasbag69
(g85
g71
NtRp2900
(dp2901
g74
(dp2902
sg83
g2454
sg76
(lp2903
g69
(g90
g71
NtRp2904
(dp2905
g74
(dp2906
g94
g95
ssg83
g2900
sg76
(lp2907
S'wsgi.file_wrapper'
p2908
asbag69
(g90
g71
NtRp2909
(dp2910
g74
(dp2911
g101
g102
ssg83
g2900
sg76
(lp2912
S':'
asbag69
(g90
g71
NtRp2913
(dp2914
g74
(dp2915
sg83
g2900
sg76
(lp2916
g69
(g70
g71
NtRp2917
(dp2918
g74
(dp2919
g82
I3
ssg83
g2913
sg76
(lp2920
S'<class wsgiref.util.FileWrapper at 0x2d0c2c0>'
p2921
asbasbasbag69
(g85
g71
NtRp2922
(dp2923
g74
(dp2924
sg83
g2454
sg76
(lp2925
g69
(g90
g71
NtRp2926
(dp2927
g74
(dp2928
g94
g95
ssg83
g2922
sg76
(lp2929
S'wsgi.input'
p2930
asbag69
(g90
g71
NtRp2931
(dp2932
g74
(dp2933
g101
g102
ssg83
g2922
sg76
(lp2934
S':'
asbag69
(g90
g71
NtRp2935
(dp2936
g74
(dp2937
sg83
g2922
sg76
(lp2938
g69
(g70
g71
NtRp2939
(dp2940
g74
(dp2941
g82
I3
ssg83
g2935
sg76
(lp2942
S'<cStringIO.StringO object at 0x461d538>'
p2943
asbasbasbag69
(g85
g71
NtRp2944
(dp2945
g74
(dp2946
sg83
g2454
sg76
(lp2947
g69
(g90
g71
NtRp2948
(dp2949
g74
(dp2950
g94
g95
ssg83
g2944
sg76
(lp2951
S'wsgi.multiprocess'
p2952
asbag69
(g90
g71
NtRp2953
(dp2954
g74
(dp2955
g101
g102
ssg83
g2944
sg76
(lp2956
S':'
asbag69
(g90
g71
NtRp2957
(dp2958
g74
(dp2959
sg83
g2944
sg76
(lp2960
g69
(g70
g71
NtRp2961
(dp2962
g74
(dp2963
g82
I3
ssg83
g2957
sg76
(lp2964
g112
asbasbasbag69
(g85
g71
NtRp2965
(dp2966
g74
(dp2967
sg83
g2454
sg76
(lp2968
g69
(g90
g71
NtRp2969
(dp2970
g74
(dp2971
g94
g95
ssg83
g2965
sg76
(lp2972
S'wsgi.multithread'
p2973
asbag69
(g90
g71
NtRp2974
(dp2975
g74
(dp2976
g101
g102
ssg83
g2965
sg76
(lp2977
S':'
asbag69
(g90
g71
NtRp2978
(dp2979
g74
(dp2980
sg83
g2965
sg76
(lp2981
g69
(g70
g71
NtRp2982
(dp2983
g74
(dp2984
g82
I3
ssg83
g2978
sg76
(lp2985
g1643
asbasbasbag69
(g85
g71
NtRp2986
(dp2987
g74
(dp2988
sg83
g2454
sg76
(lp2989
g69
(g90
g71
NtRp2990
(dp2991
g74
(dp2992
g94
g95
ssg83
g2986
sg76
(lp2993
S'wsgi.run_once'
p2994
asbag69
(g90
g71
NtRp2995
(dp2996
g74
(dp2997
g101
g102
ssg83
g2986
sg76
(lp2998
S':'
asbag69
(g90
g71
NtRp2999
(dp3000
g74
(dp3001
sg83
g2986
sg76
(lp3002
g69
(g70
g71
NtRp3003
(dp3004
g74
(dp3005
g82
I3
ssg83
g2999
sg76
(lp3006
g112
asbasbasbag69
(g85
g71
NtRp3007
(dp3008
g74
(dp3009
sg83
g2454
sg76
(lp3010
g69
(g90
g71
NtRp3011
(dp3012
g74
(dp3013
g94
g95
ssg83
g3007
sg76
(lp3014
S'wsgi.url_scheme'
p3015
asbag69
(g90
g71
NtRp3016
(dp3017
g74
(dp3018
g101
g102
ssg83
g3007
sg76
(lp3019
S':'
asbag69
(g90
g71
NtRp3020
(dp3021
g74
(dp3022
sg83
g3007
sg76
(lp3023
g69
(g70
g71
NtRp3024
(dp3025
g74
(dp3026
g82
I3
ssg83
g3020
sg76
(lp3027
g1686
asbasbasbag69
(g85
g71
NtRp3028
(dp3029
g74
(dp3030
sg83
g2454
sg76
(lp3031
g69
(g90
g71
NtRp3032
(dp3033
g74
(dp3034
g94
g95
ssg83
g3028
sg76
(lp3035
S'wsgi.version'
p3036
asbag69
(g90
g71
NtRp3037
(dp3038
g74
(dp3039
g101
g102
ssg83
g3028
sg76
(lp3040
S':'
asbag69
(g90
g71
NtRp3041
(dp3042
g74
(dp3043
sg83
g3028
sg76
(lp3044
g69
(g70
g71
NtRp3045
(dp3046
g74
(dp3047
g82
I3
ssg83
g3041
sg76
(lp3048
S'1'
asbasbasbasbasbasbasbasbasbasbasbasbasbsS'frames'
p3049
(lp3050
(dp3051
S'file'
p3052
S'/home/rochacbruno/Dropbox/stoodos/w2p/web2py/gluon/restricted.py'
p3053
sS'dump'
p3054
(dp3055
S'code'
p3056
S'\'def home():\\n    return "Welcome to my blog"\\n\\ndef...uest, db)\\n\\nresponse._vars=response._caller(user)\\n\''
p3057
sS'layer'
p3058
S"'/home/rochacbruno/Dropbox/stoodos/w2p/web2py/applications/blog/controllers/initial.py'"
p3059
sS'global compile2'
p3060
S'<function compile2>'
p3061
sS'ccode'
p3062
S'undefined'
p3063
ssS'lnum'
p3064
I211
sS'lines'
p3065
(dp3066
I206
S"    environment['__name__'] = '__restricted__'"
p3067
sI207
S'    try:'
p3068
sI208
S'        if isinstance(code, types.CodeType):'
p3069
sI209
S'            ccode = code'
p3070
sI210
S'        else:'
p3071
sI211
S'            ccode = compile2(code, layer)'
p3072
sI212
S'        exec ccode in environment'
p3073
sI213
S'    except HTTP:'
p3074
sI214
S'        raise'
p3075
sI215
S'    except RestrictedError:'
p3076
ssS'call'
p3077
S'(code=\'def home():\\n    return "Welcome to my blog"\\n\\ndef...uest, db)\\n\\nresponse._vars=response._caller(user)\\n\', environment={\'A\': <class \'gluon.html.A\'>, \'Auth\': <class \'gluon.tools.Auth\'>, \'B\': <class \'gluon.html.B\'>, \'BEAUTIFY\': <class \'gluon.html.BEAUTIFY\'>, \'BODY\': <class \'gluon.html.BODY\'>, \'BR\': <class \'gluon.html.BR\'>, \'BUTTON\': <class \'gluon.html.BUTTON\'>, \'Blog\': <Table blog (id,title,description)>, \'CAT\': <class \'gluon.html.CAT\'>, \'CENTER\': <class \'gluon.html.CENTER\'>, ...}, layer=\'/home/rochacbruno/Dropbox/stoodos/w2p/web2py/applications/blog/controllers/initial.py\')'
p3078
sS'func'
p3079
S'restricted'
p3080
sa(dp3081
g3052
S'/home/rochacbruno/Dropbox/stoodos/w2p/web2py/gluon/restricted.py'
p3082
sg3054
(dp3083
S'builtincompile'
p3084
S'<built-in function compile>'
p3085
sS'code'
p3086
S'\'def home():\\n    return "Welcome to my blog"\\n\\ndef...uest, db)\\n\\nresponse._vars=response._caller(user)\\n\''
p3087
sS'code.rstrip'
p3088
S'<built-in method rstrip of str object>'
p3089
sS').replace'
p3090
g3063
sS'layer'
p3091
S"'/home/rochacbruno/Dropbox/stoodos/w2p/web2py/applications/blog/controllers/initial.py'"
p3092
ssg3064
I194
sg3065
(dp3093
I192
S"    The +'\\n' is necessary else compile fails when code ends in a comment."
p3094
sI193
S'    """'
p3095
sI194
S"    return compile(code.rstrip().replace('\\r\\n', '\\n') + '\\n', layer, 'exec')"
p3096
sI195
S''
sI196
S''
sI197
S"def restricted(code, environment=None, layer='Unknown'):"
p3097
sI198
S'    """'
p3098
sI189
S''
sI190
S'def compile2(code, layer):'
p3099
sI191
S'    """'
p3100
ssg3077
S'(code=\'def home():\\n    return "Welcome to my blog"\\n\\ndef...uest, db)\\n\\nresponse._vars=response._caller(user)\\n\', layer=\'/home/rochacbruno/Dropbox/stoodos/w2p/web2py/applications/blog/controllers/initial.py\')'
p3101
sg3079
S'compile2'
p3102
sasS'pyver'
p3103
S'Python 2.7.3rc2: /usr/bin/python'
p3104
sS'session'
p3105
g69
(g70
g71
NtRp3106
(dp3107
g74
(dp3108
sg76
(lp3109
g69
(g78
g71
NtRp3110
(dp3111
g74
(dp3112
g82
I5
ssg83
Nsg76
(lp3113
g69
(g85
g71
NtRp3114
(dp3115
g74
(dp3116
sg83
g3110
sg76
(lp3117
g69
(g90
g71
NtRp3118
(dp3119
g74
(dp3120
g94
g95
ssg83
g3114
sg76
(lp3121
S'auth'
p3122
asbag69
(g90
g71
NtRp3123
(dp3124
g74
(dp3125
g101
g102
ssg83
g3114
sg76
(lp3126
S':'
asbag69
(g90
g71
NtRp3127
(dp3128
g74
(dp3129
sg83
g3114
sg76
(lp3130
g69
(g70
g71
NtRp3131
(dp3132
g74
(dp3133
g82
I5
ssg83
g3127
sg76
(lp3134
S'None'
p3135
asbasbasbag69
(g85
g71
NtRp3136
(dp3137
g74
(dp3138
sg83
g3110
sg76
(lp3139
g69
(g90
g71
NtRp3140
(dp3141
g74
(dp3142
g94
g95
ssg83
g3136
sg76
(lp3143
S'flash'
p3144
asbag69
(g90
g71
NtRp3145
(dp3146
g74
(dp3147
g101
g102
ssg83
g3136
sg76
(lp3148
S':'
asbag69
(g90
g71
NtRp3149
(dp3150
g74
(dp3151
sg83
g3136
sg76
(lp3152
g69
(g70
g71
NtRp3153
(dp3154
g74
(dp3155
g82
I5
ssg83
g3149
sg76
(lp3156
S'None'
p3157
asbasbasbasbasbsS'etype'
p3158
S"<type 'exceptions.IndentationError'>"
p3159
sS'date'
p3160
S'Thu Jan 17 21:45:35 2013'
p3161
sS'response'
p3162
g69
(g70
g71
NtRp3163
(dp3164
g74
(dp3165
sg76
(lp3166
g69
(g78
g71
NtRp3167
(dp3168
g74
(dp3169
g82
I5
ssg83
Nsg76
(lp3170
g69
(g85
g71
NtRp3171
(dp3172
g74
(dp3173
sg83
g3167
sg76
(lp3174
g69
(g90
g71
NtRp3175
(dp3176
g74
(dp3177
g94
g95
ssg83
g3171
sg76
(lp3178
g193
asbag69
(g90
g71
NtRp3179
(dp3180
g74
(dp3181
g101
g102
ssg83
g3171
sg76
(lp3182
S':'
asbag69
(g90
g71
NtRp3183
(dp3184
g74
(dp3185
sg83
g3171
sg76
(lp3186
g69
(g70
g71
NtRp3187
(dp3188
g74
(dp3189
g82
I5
ssg83
g3183
sg76
(lp3190
S'<cStringIO.StringO object at 0x45443e8>'
p3191
asbasbasbag69
(g85
g71
NtRp3192
(dp3193
g74
(dp3194
sg83
g3167
sg76
(lp3195
g69
(g90
g71
NtRp3196
(dp3197
g74
(dp3198
g94
g95
ssg83
g3192
sg76
(lp3199
g281
asbag69
(g90
g71
NtRp3200
(dp3201
g74
(dp3202
g101
g102
ssg83
g3192
sg76
(lp3203
S':'
asbag69
(g90
g71
NtRp3204
(dp3205
g74
(dp3206
sg83
g3192
sg76
(lp3207
g69
(g70
g71
NtRp3208
(dp3209
g74
(dp3210
g82
I5
ssg83
g3204
sg76
(lp3211
g69
(g78
g71
NtRp3212
(dp3213
g74
(dp3214
g82
I4
ssg83
Nsg76
(lp3215
g69
(g85
g71
NtRp3216
(dp3217
g74
(dp3218
sg83
g3212
sg76
(lp3219
g69
(g90
g71
NtRp3220
(dp3221
g74
(dp3222
g94
g95
ssg83
g3216
sg76
(lp3223
S'session_id_blog'
p3224
asbag69
(g90
g71
NtRp3225
(dp3226
g74
(dp3227
g101
g102
ssg83
g3216
sg76
(lp3228
S':'
asbag69
(g90
g71
NtRp3229
(dp3230
g74
(dp3231
sg83
g3216
sg76
(lp3232
g69
(g70
g71
NtRp3233
(dp3234
g74
(dp3235
g82
I4
ssg83
g3229
sg76
(lp3236
g513
ag69
(g78
g71
NtRp3237
(dp3238
g74
(dp3239
g82
I3
ssg83
Nsg76
(lp3240
g69
(g85
g71
NtRp3241
(dp3242
g74
(dp3243
sg83
g3237
sg76
(lp3244
g69
(g90
g71
NtRp3245
(dp3246
g74
(dp3247
g94
g95
ssg83
g3241
sg76
(lp3248
g332
asbag69
(g90
g71
NtRp3249
(dp3250
g74
(dp3251
g101
g102
ssg83
g3241
sg76
(lp3252
S':'
asbag69
(g90
g71
NtRp3253
(dp3254
g74
(dp3255
sg83
g3241
sg76
(lp3256
g69
(g70
g71
NtRp3257
(dp3258
g74
(dp3259
g82
I3
ssg83
g3253
sg76
(lp3260
S''
asbasbasbag69
(g85
g71
NtRp3261
(dp3262
g74
(dp3263
sg83
g3237
sg76
(lp3264
g69
(g90
g71
NtRp3265
(dp3266
g74
(dp3267
g94
g95
ssg83
g3261
sg76
(lp3268
g353
asbag69
(g90
g71
NtRp3269
(dp3270
g74
(dp3271
g101
g102
ssg83
g3261
sg76
(lp3272
S':'
asbag69
(g90
g71
NtRp3273
(dp3274
g74
(dp3275
sg83
g3261
sg76
(lp3276
g69
(g70
g71
NtRp3277
(dp3278
g74
(dp3279
g82
I3
ssg83
g3273
sg76
(lp3280
S''
asbasbasbag69
(g85
g71
NtRp3281
(dp3282
g74
(dp3283
sg83
g3237
sg76
(lp3284
g69
(g90
g71
NtRp3285
(dp3286
g74
(dp3287
g94
g95
ssg83
g3281
sg76
(lp3288
g374
asbag69
(g90
g71
NtRp3289
(dp3290
g74
(dp3291
g101
g102
ssg83
g3281
sg76
(lp3292
S':'
asbag69
(g90
g71
NtRp3293
(dp3294
g74
(dp3295
sg83
g3281
sg76
(lp3296
g69
(g70
g71
NtRp3297
(dp3298
g74
(dp3299
g82
I3
ssg83
g3293
sg76
(lp3300
S''
asbasbasbag69
(g85
g71
NtRp3301
(dp3302
g74
(dp3303
sg83
g3237
sg76
(lp3304
g69
(g90
g71
NtRp3305
(dp3306
g74
(dp3307
g94
g95
ssg83
g3301
sg76
(lp3308
g395
asbag69
(g90
g71
NtRp3309
(dp3310
g74
(dp3311
g101
g102
ssg83
g3301
sg76
(lp3312
S':'
asbag69
(g90
g71
NtRp3313
(dp3314
g74
(dp3315
sg83
g3301
sg76
(lp3316
g69
(g70
g71
NtRp3317
(dp3318
g74
(dp3319
g82
I3
ssg83
g3313
sg76
(lp3320
S''
asbasbasbag69
(g85
g71
NtRp3321
(dp3322
g74
(dp3323
sg83
g3237
sg76
(lp3324
g69
(g90
g71
NtRp3325
(dp3326
g74
(dp3327
g94
g95
ssg83
g3321
sg76
(lp3328
g416
asbag69
(g90
g71
NtRp3329
(dp3330
g74
(dp3331
g101
g102
ssg83
g3321
sg76
(lp3332
S':'
asbag69
(g90
g71
NtRp3333
(dp3334
g74
(dp3335
sg83
g3321
sg76
(lp3336
g69
(g70
g71
NtRp3337
(dp3338
g74
(dp3339
g82
I3
ssg83
g3333
sg76
(lp3340
S''
asbasbasbag69
(g85
g71
NtRp3341
(dp3342
g74
(dp3343
sg83
g3237
sg76
(lp3344
g69
(g90
g71
NtRp3345
(dp3346
g74
(dp3347
g94
g95
ssg83
g3341
sg76
(lp3348
g437
asbag69
(g90
g71
NtRp3349
(dp3350
g74
(dp3351
g101
g102
ssg83
g3341
sg76
(lp3352
S':'
asbag69
(g90
g71
NtRp3353
(dp3354
g74
(dp3355
sg83
g3341
sg76
(lp3356
g69
(g70
g71
NtRp3357
(dp3358
g74
(dp3359
g82
I3
ssg83
g3353
sg76
(lp3360
S'/'
asbasbasbag69
(g85
g71
NtRp3361
(dp3362
g74
(dp3363
sg83
g3237
sg76
(lp3364
g69
(g90
g71
NtRp3365
(dp3366
g74
(dp3367
g94
g95
ssg83
g3361
sg76
(lp3368
g458
asbag69
(g90
g71
NtRp3369
(dp3370
g74
(dp3371
g101
g102
ssg83
g3361
sg76
(lp3372
S':'
asbag69
(g90
g71
NtRp3373
(dp3374
g74
(dp3375
sg83
g3361
sg76
(lp3376
g69
(g70
g71
NtRp3377
(dp3378
g74
(dp3379
g82
I3
ssg83
g3373
sg76
(lp3380
S''
asbasbasbag69
(g85
g71
NtRp3381
(dp3382
g74
(dp3383
sg83
g3237
sg76
(lp3384
g69
(g90
g71
NtRp3385
(dp3386
g74
(dp3387
g94
g95
ssg83
g3381
sg76
(lp3388
g479
asbag69
(g90
g71
NtRp3389
(dp3390
g74
(dp3391
g101
g102
ssg83
g3381
sg76
(lp3392
S':'
asbag69
(g90
g71
NtRp3393
(dp3394
g74
(dp3395
sg83
g3381
sg76
(lp3396
g69
(g70
g71
NtRp3397
(dp3398
g74
(dp3399
g82
I3
ssg83
g3393
sg76
(lp3400
S''
asbasbasbasbasbasbasbasbasbasbasbag69
(g85
g71
NtRp3401
(dp3402
g74
(dp3403
sg83
g3167
sg76
(lp3404
g69
(g90
g71
NtRp3405
(dp3406
g74
(dp3407
g94
g95
ssg83
g3401
sg76
(lp3408
S'delimiters'
p3409
asbag69
(g90
g71
NtRp3410
(dp3411
g74
(dp3412
g101
g102
ssg83
g3401
sg76
(lp3413
S':'
asbag69
(g90
g71
NtRp3414
(dp3415
g74
(dp3416
sg83
g3401
sg76
(lp3417
g69
(g70
g71
NtRp3418
(dp3419
g74
(dp3420
g82
I5
ssg83
g3414
sg76
(lp3421
g69
(g78
g71
NtRp3422
(dp3423
g74
(dp3424
g82
I4
ssg83
Nsg76
(lp3425
g69
(g85
g71
NtRp3426
(dp3427
g74
(dp3428
sg83
g3422
sg76
(lp3429
g69
(g90
g71
NtRp3430
(dp3431
g74
(dp3432
sg83
g3426
sg76
(lp3433
g69
(g70
g71
NtRp3434
(dp3435
g74
(dp3436
g82
I4
ssg83
g3430
sg76
(lp3437
S'{{'
p3438
asbasbasbag69
(g85
g71
NtRp3439
(dp3440
g74
(dp3441
sg83
g3422
sg76
(lp3442
g69
(g90
g71
NtRp3443
(dp3444
g74
(dp3445
sg83
g3439
sg76
(lp3446
g69
(g70
g71
NtRp3447
(dp3448
g74
(dp3449
g82
I4
ssg83
g3443
sg76
(lp3450
S'}}'
p3451
asbasbasbasbasbasbasbag69
(g85
g71
NtRp3452
(dp3453
g74
(dp3454
sg83
g3167
sg76
(lp3455
g69
(g90
g71
NtRp3456
(dp3457
g74
(dp3458
g94
g95
ssg83
g3452
sg76
(lp3459
S'files'
p3460
asbag69
(g90
g71
NtRp3461
(dp3462
g74
(dp3463
g101
g102
ssg83
g3452
sg76
(lp3464
S':'
asbag69
(g90
g71
NtRp3465
(dp3466
g74
(dp3467
sg83
g3452
sg76
(lp3468
g69
(g70
g71
NtRp3469
(dp3470
g74
(dp3471
g82
I5
ssg83
g3465
sg76
(lp3472
g69
(g78
g71
NtRp3473
(dp3474
g74
(dp3475
g82
I4
ssg83
Nsg76
(lp3476
sbasbasbasbag69
(g85
g71
NtRp3477
(dp3478
g74
(dp3479
sg83
g3167
sg76
(lp3480
g69
(g90
g71
NtRp3481
(dp3482
g74
(dp3483
g94
g95
ssg83
g3477
sg76
(lp3484
S'flash'
p3485
asbag69
(g90
g71
NtRp3486
(dp3487
g74
(dp3488
g101
g102
ssg83
g3477
sg76
(lp3489
S':'
asbag69
(g90
g71
NtRp3490
(dp3491
g74
(dp3492
sg83
g3477
sg76
(lp3493
g69
(g70
g71
NtRp3494
(dp3495
g74
(dp3496
g82
I5
ssg83
g3490
sg76
(lp3497
S''
asbasbasbag69
(g85
g71
NtRp3498
(dp3499
g74
(dp3500
sg83
g3167
sg76
(lp3501
g69
(g90
g71
NtRp3502
(dp3503
g74
(dp3504
g94
g95
ssg83
g3498
sg76
(lp3505
S'generic_patterns'
p3506
asbag69
(g90
g71
NtRp3507
(dp3508
g74
(dp3509
g101
g102
ssg83
g3498
sg76
(lp3510
S':'
asbag69
(g90
g71
NtRp3511
(dp3512
g74
(dp3513
sg83
g3498
sg76
(lp3514
g69
(g70
g71
NtRp3515
(dp3516
g74
(dp3517
g82
I5
ssg83
g3511
sg76
(lp3518
g69
(g78
g71
NtRp3519
(dp3520
g74
(dp3521
g82
I4
ssg83
Nsg76
(lp3522
sbasbasbasbag69
(g85
g71
NtRp3523
(dp3524
g74
(dp3525
sg83
g3167
sg76
(lp3526
g69
(g90
g71
NtRp3527
(dp3528
g74
(dp3529
g94
g95
ssg83
g3523
sg76
(lp3530
S'headers'
p3531
asbag69
(g90
g71
NtRp3532
(dp3533
g74
(dp3534
g101
g102
ssg83
g3523
sg76
(lp3535
S':'
asbag69
(g90
g71
NtRp3536
(dp3537
g74
(dp3538
sg83
g3523
sg76
(lp3539
g69
(g70
g71
NtRp3540
(dp3541
g74
(dp3542
g82
I5
ssg83
g3536
sg76
(lp3543
g69
(g78
g71
NtRp3544
(dp3545
g74
(dp3546
g82
I4
ssg83
Nsg76
(lp3547
g69
(g85
g71
NtRp3548
(dp3549
g74
(dp3550
sg83
g3544
sg76
(lp3551
g69
(g90
g71
NtRp3552
(dp3553
g74
(dp3554
g94
g95
ssg83
g3548
sg76
(lp3555
S'X-Powered-By'
p3556
asbag69
(g90
g71
NtRp3557
(dp3558
g74
(dp3559
g101
g102
ssg83
g3548
sg76
(lp3560
S':'
asbag69
(g90
g71
NtRp3561
(dp3562
g74
(dp3563
sg83
g3548
sg76
(lp3564
g69
(g70
g71
NtRp3565
(dp3566
g74
(dp3567
g82
I4
ssg83
g3561
sg76
(lp3568
S'web2py'
p3569
asbasbasbasbasbasbasbag69
(g85
g71
NtRp3570
(dp3571
g74
(dp3572
sg83
g3167
sg76
(lp3573
g69
(g90
g71
NtRp3574
(dp3575
g74
(dp3576
g94
g95
ssg83
g3570
sg76
(lp3577
S'menu'
p3578
asbag69
(g90
g71
NtRp3579
(dp3580
g74
(dp3581
g101
g102
ssg83
g3570
sg76
(lp3582
S':'
asbag69
(g90
g71
NtRp3583
(dp3584
g74
(dp3585
sg83
g3570
sg76
(lp3586
g69
(g70
g71
NtRp3587
(dp3588
g74
(dp3589
g82
I5
ssg83
g3583
sg76
(lp3590
g69
(g78
g71
NtRp3591
(dp3592
g74
(dp3593
g82
I4
ssg83
Nsg76
(lp3594
sbasbasbasbag69
(g85
g71
NtRp3595
(dp3596
g74
(dp3597
sg83
g3167
sg76
(lp3598
g69
(g90
g71
NtRp3599
(dp3600
g74
(dp3601
g94
g95
ssg83
g3595
sg76
(lp3602
S'meta'
p3603
asbag69
(g90
g71
NtRp3604
(dp3605
g74
(dp3606
g101
g102
ssg83
g3595
sg76
(lp3607
S':'
asbag69
(g90
g71
NtRp3608
(dp3609
g74
(dp3610
sg83
g3595
sg76
(lp3611
g69
(g70
g71
NtRp3612
(dp3613
g74
(dp3614
g82
I5
ssg83
g3608
sg76
(lp3615
g69
(g78
g71
NtRp3616
(dp3617
g74
(dp3618
g82
I4
ssg83
Nsg76
(lp3619
sbasbasbasbag69
(g85
g71
NtRp3620
(dp3621
g74
(dp3622
sg83
g3167
sg76
(lp3623
g69
(g90
g71
NtRp3624
(dp3625
g74
(dp3626
g94
g95
ssg83
g3620
sg76
(lp3627
S'models_to_run'
p3628
asbag69
(g90
g71
NtRp3629
(dp3630
g74
(dp3631
g101
g102
ssg83
g3620
sg76
(lp3632
S':'
asbag69
(g90
g71
NtRp3633
(dp3634
g74
(dp3635
sg83
g3620
sg76
(lp3636
g69
(g70
g71
NtRp3637
(dp3638
g74
(dp3639
g82
I5
ssg83
g3633
sg76
(lp3640
g69
(g78
g71
NtRp3641
(dp3642
g74
(dp3643
g82
I4
ssg83
Nsg76
(lp3644
g69
(g85
g71
NtRp3645
(dp3646
g74
(dp3647
sg83
g3641
sg76
(lp3648
g69
(g90
g71
NtRp3649
(dp3650
g74
(dp3651
sg83
g3645
sg76
(lp3652
g69
(g70
g71
NtRp3653
(dp3654
g74
(dp3655
g82
I4
ssg83
g3649
sg76
(lp3656
S'^\\w+\\.py$'
p3657
asbasbasbag69
(g85
g71
NtRp3658
(dp3659
g74
(dp3660
sg83
g3641
sg76
(lp3661
g69
(g90
g71
NtRp3662
(dp3663
g74
(dp3664
sg83
g3658
sg76
(lp3665
g69
(g70
g71
NtRp3666
(dp3667
g74
(dp3668
g82
I4
ssg83
g3662
sg76
(lp3669
S'^initial/\\w+\\.py$'
p3670
asbasbasbag69
(g85
g71
NtRp3671
(dp3672
g74
(dp3673
sg83
g3641
sg76
(lp3674
g69
(g90
g71
NtRp3675
(dp3676
g74
(dp3677
sg83
g3671
sg76
(lp3678
g69
(g70
g71
NtRp3679
(dp3680
g74
(dp3681
g82
I4
ssg83
g3675
sg76
(lp3682
S'^initial/user/\\w+\\.py$'
p3683
asbasbasbasbasbasbasbag69
(g85
g71
NtRp3684
(dp3685
g74
(dp3686
sg83
g3167
sg76
(lp3687
g69
(g90
g71
NtRp3688
(dp3689
g74
(dp3690
g94
g95
ssg83
g3684
sg76
(lp3691
S'postprocessing'
p3692
asbag69
(g90
g71
NtRp3693
(dp3694
g74
(dp3695
g101
g102
ssg83
g3684
sg76
(lp3696
S':'
asbag69
(g90
g71
NtRp3697
(dp3698
g74
(dp3699
sg83
g3684
sg76
(lp3700
g69
(g70
g71
NtRp3701
(dp3702
g74
(dp3703
g82
I5
ssg83
g3697
sg76
(lp3704
g69
(g78
g71
NtRp3705
(dp3706
g74
(dp3707
g82
I4
ssg83
Nsg76
(lp3708
sbasbasbasbag69
(g85
g71
NtRp3709
(dp3710
g74
(dp3711
sg83
g3167
sg76
(lp3712
g69
(g90
g71
NtRp3713
(dp3714
g74
(dp3715
g94
g95
ssg83
g3709
sg76
(lp3716
S'session_cookie_expires'
p3717
asbag69
(g90
g71
NtRp3718
(dp3719
g74
(dp3720
g101
g102
ssg83
g3709
sg76
(lp3721
S':'
asbag69
(g90
g71
NtRp3722
(dp3723
g74
(dp3724
sg83
g3709
sg76
(lp3725
g69
(g70
g71
NtRp3726
(dp3727
g74
(dp3728
g82
I5
ssg83
g3722
sg76
(lp3729
S'None'
p3730
asbasbasbag69
(g85
g71
NtRp3731
(dp3732
g74
(dp3733
sg83
g3167
sg76
(lp3734
g69
(g90
g71
NtRp3735
(dp3736
g74
(dp3737
g94
g95
ssg83
g3731
sg76
(lp3738
S'session_data_name'
p3739
asbag69
(g90
g71
NtRp3740
(dp3741
g74
(dp3742
g101
g102
ssg83
g3731
sg76
(lp3743
S':'
asbag69
(g90
g71
NtRp3744
(dp3745
g74
(dp3746
sg83
g3731
sg76
(lp3747
g69
(g70
g71
NtRp3748
(dp3749
g74
(dp3750
g82
I5
ssg83
g3744
sg76
(lp3751
S'session_data_blog'
p3752
asbasbasbag69
(g85
g71
NtRp3753
(dp3754
g74
(dp3755
sg83
g3167
sg76
(lp3756
g69
(g90
g71
NtRp3757
(dp3758
g74
(dp3759
g94
g95
ssg83
g3753
sg76
(lp3760
S'session_file'
p3761
asbag69
(g90
g71
NtRp3762
(dp3763
g74
(dp3764
g101
g102
ssg83
g3753
sg76
(lp3765
S':'
asbag69
(g90
g71
NtRp3766
(dp3767
g74
(dp3768
sg83
g3753
sg76
(lp3769
g69
(g70
g71
NtRp3770
(dp3771
g74
(dp3772
g82
I5
ssg83
g3766
sg76
(lp3773
S"<open file '/home/rochacbruno/Dropbox/stoodos/w2p/web2py/applications/blog/sessions/127.0.0.1-41f3a938-69d7-4315-b7a4-8e2d90d156b9', mode 'rb+' at 0x4252390>"
p3774
asbasbasbag69
(g85
g71
NtRp3775
(dp3776
g74
(dp3777
sg83
g3167
sg76
(lp3778
g69
(g90
g71
NtRp3779
(dp3780
g74
(dp3781
g94
g95
ssg83
g3775
sg76
(lp3782
S'session_filename'
p3783
asbag69
(g90
g71
NtRp3784
(dp3785
g74
(dp3786
g101
g102
ssg83
g3775
sg76
(lp3787
S':'
asbag69
(g90
g71
NtRp3788
(dp3789
g74
(dp3790
sg83
g3775
sg76
(lp3791
g69
(g70
g71
NtRp3792
(dp3793
g74
(dp3794
g82
I5
ssg83
g3788
sg76
(lp3795
S'/home/rochacbruno/Dropbox/stoodos/w2p/web2py/applications/blog/sessions/127.0.0.1-41f3a938-69d7-4315-b7a4-8e2d90d156b9'
p3796
asbasbasbag69
(g85
g71
NtRp3797
(dp3798
g74
(dp3799
sg83
g3167
sg76
(lp3800
g69
(g90
g71
NtRp3801
(dp3802
g74
(dp3803
g94
g95
ssg83
g3797
sg76
(lp3804
S'session_id'
p3805
asbag69
(g90
g71
NtRp3806
(dp3807
g74
(dp3808
g101
g102
ssg83
g3797
sg76
(lp3809
S':'
asbag69
(g90
g71
NtRp3810
(dp3811
g74
(dp3812
sg83
g3797
sg76
(lp3813
g69
(g70
g71
NtRp3814
(dp3815
g74
(dp3816
g82
I5
ssg83
g3810
sg76
(lp3817
g513
asbasbasbag69
(g85
g71
NtRp3818
(dp3819
g74
(dp3820
sg83
g3167
sg76
(lp3821
g69
(g90
g71
NtRp3822
(dp3823
g74
(dp3824
g94
g95
ssg83
g3818
sg76
(lp3825
S'session_id_name'
p3826
asbag69
(g90
g71
NtRp3827
(dp3828
g74
(dp3829
g101
g102
ssg83
g3818
sg76
(lp3830
S':'
asbag69
(g90
g71
NtRp3831
(dp3832
g74
(dp3833
sg83
g3818
sg76
(lp3834
g69
(g70
g71
NtRp3835
(dp3836
g74
(dp3837
g82
I5
ssg83
g3831
sg76
(lp3838
g3224
asbasbasbag69
(g85
g71
NtRp3839
(dp3840
g74
(dp3841
sg83
g3167
sg76
(lp3842
g69
(g90
g71
NtRp3843
(dp3844
g74
(dp3845
g94
g95
ssg83
g3839
sg76
(lp3846
S'session_locked'
p3847
asbag69
(g90
g71
NtRp3848
(dp3849
g74
(dp3850
g101
g102
ssg83
g3839
sg76
(lp3851
S':'
asbag69
(g90
g71
NtRp3852
(dp3853
g74
(dp3854
sg83
g3839
sg76
(lp3855
g69
(g70
g71
NtRp3856
(dp3857
g74
(dp3858
g82
I5
ssg83
g3852
sg76
(lp3859
g1643
asbasbasbag69
(g85
g71
NtRp3860
(dp3861
g74
(dp3862
sg83
g3167
sg76
(lp3863
g69
(g90
g71
NtRp3864
(dp3865
g74
(dp3866
g94
g95
ssg83
g3860
sg76
(lp3867
S'session_new'
p3868
asbag69
(g90
g71
NtRp3869
(dp3870
g74
(dp3871
g101
g102
ssg83
g3860
sg76
(lp3872
S':'
asbag69
(g90
g71
NtRp3873
(dp3874
g74
(dp3875
sg83
g3860
sg76
(lp3876
g69
(g70
g71
NtRp3877
(dp3878
g74
(dp3879
g82
I5
ssg83
g3873
sg76
(lp3880
g112
asbasbasbag69
(g85
g71
NtRp3881
(dp3882
g74
(dp3883
sg83
g3167
sg76
(lp3884
g69
(g90
g71
NtRp3885
(dp3886
g74
(dp3887
g94
g95
ssg83
g3881
sg76
(lp3888
S'session_storage_type'
p3889
asbag69
(g90
g71
NtRp3890
(dp3891
g74
(dp3892
g101
g102
ssg83
g3881
sg76
(lp3893
S':'
asbag69
(g90
g71
NtRp3894
(dp3895
g74
(dp3896
sg83
g3881
sg76
(lp3897
g69
(g70
g71
NtRp3898
(dp3899
g74
(dp3900
g82
I5
ssg83
g3894
sg76
(lp3901
g3052
asbasbasbag69
(g85
g71
NtRp3902
(dp3903
g74
(dp3904
sg83
g3167
sg76
(lp3905
g69
(g90
g71
NtRp3906
(dp3907
g74
(dp3908
g94
g95
ssg83
g3902
sg76
(lp3909
S'status'
p3910
asbag69
(g90
g71
NtRp3911
(dp3912
g74
(dp3913
g101
g102
ssg83
g3902
sg76
(lp3914
S':'
asbag69
(g90
g71
NtRp3915
(dp3916
g74
(dp3917
sg83
g3902
sg76
(lp3918
g69
(g70
g71
NtRp3919
(dp3920
g74
(dp3921
g82
I5
ssg83
g3915
sg76
(lp3922
S'200'
p3923
asbasbasbag69
(g85
g71
NtRp3924
(dp3925
g74
(dp3926
sg83
g3167
sg76
(lp3927
g69
(g90
g71
NtRp3928
(dp3929
g74
(dp3930
g94
g95
ssg83
g3924
sg76
(lp3931
S'view'
p3932
asbag69
(g90
g71
NtRp3933
(dp3934
g74
(dp3935
g101
g102
ssg83
g3924
sg76
(lp3936
S':'
asbag69
(g90
g71
NtRp3937
(dp3938
g74
(dp3939
sg83
g3924
sg76
(lp3940
g69
(g70
g71
NtRp3941
(dp3942
g74
(dp3943
g82
I5
ssg83
g3937
sg76
(lp3944
S'initial/user.html'
p3945
asbasbasbasbasbsS'locals'
p3946
(dp3947
g4
S"'/home/rochacbruno/Dropbox/stoodos/w2p/web2py/applications/blog/controllers/initial.py'"
p3948
sg6
S'\'def home():\\n    return "Welcome to my blog"\\n\\ndef...uest, db)\\n\\nresponse._vars=response._caller(user)\\n\''
p3949
sssS'traceback'
p3950
S'Traceback (most recent call last):\n  File "/home/rochacbruno/Dropbox/stoodos/w2p/web2py/gluon/restricted.py", line 211, in restricted\n    ccode = compile2(code, layer)\n  File "/home/rochacbruno/Dropbox/stoodos/w2p/web2py/gluon/restricted.py", line 194, in compile2\n    return compile(code.rstrip().replace(\'\\r\\n\', \'\\n\') + \'\\n\', layer, \'exec\')\n  File "/home/rochacbruno/Dropbox/stoodos/w2p/web2py/applications/blog/controllers/initial.py", line 14\n    return auth()\n                ^\nIndentationError: unindent does not match any outer indentation level\n'
p3951
s.