(dp1
S'output'
p2
S"<type 'exceptions.IndentationError'> unindent does not match any outer indentation level (post.py, line 12)"
p3
sS'layer'
p4
S'/home/rochacbruno/Dropbox/stoodos/w2p/web2py/applications/blog/controllers/post.py'
p5
sS'code'
p6
S'def show():\n    return "post"\n\ndef edit():\n    return "edit post"\n\ndef delete():\n    return "delete"\n\ndef add():\n\tprint request.vars\n    return "add"\n\nresponse._vars=response._caller(add)\n'
p7
sS'snapshot'
p8
(dp9
S'exception'
p10
(dp11
S'__getslice__'
p12
S"<method-wrapper '__getslice__' of exceptions.IndentationError object>"
p13
sS'text'
p14
S'\'    return "add"\\n\''
p15
sS'__str__'
p16
S"<method-wrapper '__str__' of exceptions.IndentationError object>"
p17
sS'__reduce__'
p18
S'<built-in method __reduce__ of exceptions.IndentationError object>'
p19
sS'__dict__'
p20
S'{}'
p21
sS'__sizeof__'
p22
S'<built-in method __sizeof__ of exceptions.IndentationError object>'
p23
sS'__init__'
p24
S"<method-wrapper '__init__' of exceptions.IndentationError object>"
p25
sS'__setattr__'
p26
S"<method-wrapper '__setattr__' of exceptions.IndentationError object>"
p27
sS'__reduce_ex__'
p28
S'<built-in method __reduce_ex__ of exceptions.IndentationError object>'
p29
sS'__new__'
p30
S'<built-in method __new__ of type object>'
p31
sS'__format__'
p32
S'<built-in method __format__ of exceptions.IndentationError object>'
p33
sS'__class__'
p34
S"<type 'exceptions.IndentationError'>"
p35
sS'filename'
p36
S"'/home/rochacbruno/Dropbox/stoodos/w2p/web2py/applications/blog/controllers/post.py'"
p37
sS'lineno'
p38
S'12'
p39
sS'msg'
p40
S"'unindent does not match any outer indentation level'"
p41
sS'__doc__'
p42
S"'Improper indentation.'"
p43
sS'__getitem__'
p44
S"<method-wrapper '__getitem__' of exceptions.IndentationError object>"
p45
sS'__setstate__'
p46
S'<built-in method __setstate__ of exceptions.IndentationError object>'
p47
sS'__getattribute__'
p48
S"<method-wrapper '__getattribute__' of exceptions.IndentationError object>"
p49
sS'print_file_and_line'
p50
S'None'
p51
sS'args'
p52
S'(\'unindent does not match any outer indentation level\', (\'/home/rochacbruno/Dropbox/stoodos/w2p/web2py/applications/blog/controllers/post.py\', 12, 17, \'    return "add"\\n\'))'
p53
sS'__subclasshook__'
p54
S'<built-in method __subclasshook__ of type object>'
p55
sS'offset'
p56
S'17'
p57
sS'__unicode__'
p58
S'<built-in method __unicode__ of exceptions.IndentationError object>'
p59
sS'__delattr__'
p60
S"<method-wrapper '__delattr__' of exceptions.IndentationError object>"
p61
sS'__repr__'
p62
S"<method-wrapper '__repr__' of exceptions.IndentationError object>"
p63
sS'__hash__'
p64
S"<method-wrapper '__hash__' of exceptions.IndentationError object>"
p65
ssS'evalue'
p66
S'unindent does not match any outer indentation level (post.py, line 12)'
p67
sS'request'
p68
ccopy_reg
_reconstructor
p69
(cgluon.html
BEAUTIFY
p70
c__builtin__
object
p71
NtRp72
(dp73
S'attributes'
p74
(dp75
sS'components'
p76
(lp77
g69
(cgluon.html
TABLE
p78
g71
NtRp79
(dp80
g74
(dp81
S'level'
p82
I5
ssS'parent'
p83
Nsg76
(lp84
g69
(cgluon.html
TR
p85
g71
NtRp86
(dp87
g74
(dp88
sg83
g79
sg76
(lp89
g69
(cgluon.html
TD
p90
g71
NtRp91
(dp92
g74
(dp93
S'_style'
p94
S'font-weight:bold;vertical-align:top'
p95
ssg83
g86
sg76
(lp96
S'ajax'
p97
asbag69
(g90
g71
NtRp98
(dp99
g74
(dp100
S'_valign'
p101
S'top'
p102
ssg83
g86
sg76
(lp103
S':'
asbag69
(g90
g71
NtRp104
(dp105
g74
(dp106
sg83
g86
sg76
(lp107
g69
(g70
g71
NtRp108
(dp109
g74
(dp110
g82
I5
ssg83
g104
sg76
(lp111
S'False'
p112
asbasbasbag69
(g85
g71
NtRp113
(dp114
g74
(dp115
sg83
g79
sg76
(lp116
g69
(g90
g71
NtRp117
(dp118
g74
(dp119
g94
g95
ssg83
g113
sg76
(lp120
S'application'
p121
asbag69
(g90
g71
NtRp122
(dp123
g74
(dp124
g101
g102
ssg83
g113
sg76
(lp125
S':'
asbag69
(g90
g71
NtRp126
(dp127
g74
(dp128
sg83
g113
sg76
(lp129
g69
(g70
g71
NtRp130
(dp131
g74
(dp132
g82
I5
ssg83
g126
sg76
(lp133
S'blog'
p134
asbasbasbag69
(g85
g71
NtRp135
(dp136
g74
(dp137
sg83
g79
sg76
(lp138
g69
(g90
g71
NtRp139
(dp140
g74
(dp141
g94
g95
ssg83
g135
sg76
(lp142
g52
asbag69
(g90
g71
NtRp143
(dp144
g74
(dp145
g101
g102
ssg83
g135
sg76
(lp146
S':'
asbag69
(g90
g71
NtRp147
(dp148
g74
(dp149
sg83
g135
sg76
(lp150
g69
(g70
g71
NtRp151
(dp152
g74
(dp153
g82
I5
ssg83
g147
sg76
(lp154
g69
(g78
g71
NtRp155
(dp156
g74
(dp157
g82
I4
ssg83
Nsg76
(lp158
sbasbasbasbag69
(g85
g71
NtRp159
(dp160
g74
(dp161
sg83
g79
sg76
(lp162
g69
(g90
g71
NtRp163
(dp164
g74
(dp165
g94
g95
ssg83
g159
sg76
(lp166
S'body'
p167
asbag69
(g90
g71
NtRp168
(dp169
g74
(dp170
g101
g102
ssg83
g159
sg76
(lp171
S':'
asbag69
(g90
g71
NtRp172
(dp173
g74
(dp174
sg83
g159
sg76
(lp175
g69
(g70
g71
NtRp176
(dp177
g74
(dp178
g82
I5
ssg83
g172
sg76
(lp179
S'<cStringIO.StringO object at 0x34ae538>'
p180
asbasbasbag69
(g85
g71
NtRp181
(dp182
g74
(dp183
sg83
g79
sg76
(lp184
g69
(g90
g71
NtRp185
(dp186
g74
(dp187
g94
g95
ssg83
g181
sg76
(lp188
S'cid'
p189
asbag69
(g90
g71
NtRp190
(dp191
g74
(dp192
g101
g102
ssg83
g181
sg76
(lp193
S':'
asbag69
(g90
g71
NtRp194
(dp195
g74
(dp196
sg83
g181
sg76
(lp197
g69
(g70
g71
NtRp198
(dp199
g74
(dp200
g82
I5
ssg83
g194
sg76
(lp201
S'None'
p202
asbasbasbag69
(g85
g71
NtRp203
(dp204
g74
(dp205
sg83
g79
sg76
(lp206
g69
(g90
g71
NtRp207
(dp208
g74
(dp209
g94
g95
ssg83
g203
sg76
(lp210
S'client'
p211
asbag69
(g90
g71
NtRp212
(dp213
g74
(dp214
g101
g102
ssg83
g203
sg76
(lp215
S':'
asbag69
(g90
g71
NtRp216
(dp217
g74
(dp218
sg83
g203
sg76
(lp219
g69
(g70
g71
NtRp220
(dp221
g74
(dp222
g82
I5
ssg83
g216
sg76
(lp223
S'127.0.0.1'
p224
asbasbasbag69
(g85
g71
NtRp225
(dp226
g74
(dp227
sg83
g79
sg76
(lp228
g69
(g90
g71
NtRp229
(dp230
g74
(dp231
g94
g95
ssg83
g225
sg76
(lp232
S'controller'
p233
asbag69
(g90
g71
NtRp234
(dp235
g74
(dp236
g101
g102
ssg83
g225
sg76
(lp237
S':'
asbag69
(g90
g71
NtRp238
(dp239
g74
(dp240
sg83
g225
sg76
(lp241
g69
(g70
g71
NtRp242
(dp243
g74
(dp244
g82
I5
ssg83
g238
sg76
(lp245
S'post'
p246
asbasbasbag69
(g85
g71
NtRp247
(dp248
g74
(dp249
sg83
g79
sg76
(lp250
g69
(g90
g71
NtRp251
(dp252
g74
(dp253
g94
g95
ssg83
g247
sg76
(lp254
S'cookies'
p255
asbag69
(g90
g71
NtRp256
(dp257
g74
(dp258
g101
g102
ssg83
g247
sg76
(lp259
S':'
asbag69
(g90
g71
NtRp260
(dp261
g74
(dp262
sg83
g247
sg76
(lp263
g69
(g70
g71
NtRp264
(dp265
g74
(dp266
g82
I5
ssg83
g260
sg76
(lp267
g69
(g78
g71
NtRp268
(dp269
g74
(dp270
g82
I4
ssg83
Nsg76
(lp271
g69
(g85
g71
NtRp272
(dp273
g74
(dp274
sg83
g268
sg76
(lp275
g69
(g90
g71
NtRp276
(dp277
g74
(dp278
g94
g95
ssg83
g272
sg76
(lp279
S'session_id_blog'
p280
asbag69
(g90
g71
NtRp281
(dp282
g74
(dp283
g101
g102
ssg83
g272
sg76
(lp284
S':'
asbag69
(g90
g71
NtRp285
(dp286
g74
(dp287
sg83
g272
sg76
(lp288
g69
(g70
g71
NtRp289
(dp290
g74
(dp291
g82
I4
ssg83
g285
sg76
(lp292
S'127.0.0.1-41f3a938-69d7-4315-b7a4-8e2d90d156b9'
p293
ag69
(g78
g71
NtRp294
(dp295
g74
(dp296
g82
I3
ssg83
Nsg76
(lp297
g69
(g85
g71
NtRp298
(dp299
g74
(dp300
sg83
g294
sg76
(lp301
g69
(g90
g71
NtRp302
(dp303
g74
(dp304
g94
g95
ssg83
g298
sg76
(lp305
S'comment'
p306
asbag69
(g90
g71
NtRp307
(dp308
g74
(dp309
g101
g102
ssg83
g298
sg76
(lp310
S':'
asbag69
(g90
g71
NtRp311
(dp312
g74
(dp313
sg83
g298
sg76
(lp314
g69
(g70
g71
NtRp315
(dp316
g74
(dp317
g82
I3
ssg83
g311
sg76
(lp318
S''
asbasbasbag69
(g85
g71
NtRp319
(dp320
g74
(dp321
sg83
g294
sg76
(lp322
g69
(g90
g71
NtRp323
(dp324
g74
(dp325
g94
g95
ssg83
g319
sg76
(lp326
S'domain'
p327
asbag69
(g90
g71
NtRp328
(dp329
g74
(dp330
g101
g102
ssg83
g319
sg76
(lp331
S':'
asbag69
(g90
g71
NtRp332
(dp333
g74
(dp334
sg83
g319
sg76
(lp335
g69
(g70
g71
NtRp336
(dp337
g74
(dp338
g82
I3
ssg83
g332
sg76
(lp339
S''
asbasbasbag69
(g85
g71
NtRp340
(dp341
g74
(dp342
sg83
g294
sg76
(lp343
g69
(g90
g71
NtRp344
(dp345
g74
(dp346
g94
g95
ssg83
g340
sg76
(lp347
S'expires'
p348
asbag69
(g90
g71
NtRp349
(dp350
g74
(dp351
g101
g102
ssg83
g340
sg76
(lp352
S':'
asbag69
(g90
g71
NtRp353
(dp354
g74
(dp355
sg83
g340
sg76
(lp356
g69
(g70
g71
NtRp357
(dp358
g74
(dp359
g82
I3
ssg83
g353
sg76
(lp360
S''
asbasbasbag69
(g85
g71
NtRp361
(dp362
g74
(dp363
sg83
g294
sg76
(lp364
g69
(g90
g71
NtRp365
(dp366
g74
(dp367
g94
g95
ssg83
g361
sg76
(lp368
S'httponly'
p369
asbag69
(g90
g71
NtRp370
(dp371
g74
(dp372
g101
g102
ssg83
g361
sg76
(lp373
S':'
asbag69
(g90
g71
NtRp374
(dp375
g74
(dp376
sg83
g361
sg76
(lp377
g69
(g70
g71
NtRp378
(dp379
g74
(dp380
g82
I3
ssg83
g374
sg76
(lp381
S''
asbasbasbag69
(g85
g71
NtRp382
(dp383
g74
(dp384
sg83
g294
sg76
(lp385
g69
(g90
g71
NtRp386
(dp387
g74
(dp388
g94
g95
ssg83
g382
sg76
(lp389
S'max-age'
p390
asbag69
(g90
g71
NtRp391
(dp392
g74
(dp393
g101
g102
ssg83
g382
sg76
(lp394
S':'
asbag69
(g90
g71
NtRp395
(dp396
g74
(dp397
sg83
g382
sg76
(lp398
g69
(g70
g71
NtRp399
(dp400
g74
(dp401
g82
I3
ssg83
g395
sg76
(lp402
S''
asbasbasbag69
(g85
g71
NtRp403
(dp404
g74
(dp405
sg83
g294
sg76
(lp406
g69
(g90
g71
NtRp407
(dp408
g74
(dp409
g94
g95
ssg83
g403
sg76
(lp410
S'path'
p411
asbag69
(g90
g71
NtRp412
(dp413
g74
(dp414
g101
g102
ssg83
g403
sg76
(lp415
S':'
asbag69
(g90
g71
NtRp416
(dp417
g74
(dp418
sg83
g403
sg76
(lp419
g69
(g70
g71
NtRp420
(dp421
g74
(dp422
g82
I3
ssg83
g416
sg76
(lp423
S''
asbasbasbag69
(g85
g71
NtRp424
(dp425
g74
(dp426
sg83
g294
sg76
(lp427
g69
(g90
g71
NtRp428
(dp429
g74
(dp430
g94
g95
ssg83
g424
sg76
(lp431
S'secure'
p432
asbag69
(g90
g71
NtRp433
(dp434
g74
(dp435
g101
g102
ssg83
g424
sg76
(lp436
S':'
asbag69
(g90
g71
NtRp437
(dp438
g74
(dp439
sg83
g424
sg76
(lp440
g69
(g70
g71
NtRp441
(dp442
g74
(dp443
g82
I3
ssg83
g437
sg76
(lp444
S''
asbasbasbag69
(g85
g71
NtRp445
(dp446
g74
(dp447
sg83
g294
sg76
(lp448
g69
(g90
g71
NtRp449
(dp450
g74
(dp451
g94
g95
ssg83
g445
sg76
(lp452
S'version'
p453
asbag69
(g90
g71
NtRp454
(dp455
g74
(dp456
g101
g102
ssg83
g445
sg76
(lp457
S':'
asbag69
(g90
g71
NtRp458
(dp459
g74
(dp460
sg83
g445
sg76
(lp461
g69
(g70
g71
NtRp462
(dp463
g74
(dp464
g82
I3
ssg83
g458
sg76
(lp465
S''
asbasbasbasbasbasbasbasbasbasbasbag69
(g85
g71
NtRp466
(dp467
g74
(dp468
sg83
g79
sg76
(lp469
g69
(g90
g71
NtRp470
(dp471
g74
(dp472
g94
g95
ssg83
g466
sg76
(lp473
S'env'
p474
asbag69
(g90
g71
NtRp475
(dp476
g74
(dp477
g101
g102
ssg83
g466
sg76
(lp478
S':'
asbag69
(g90
g71
NtRp479
(dp480
g74
(dp481
sg83
g466
sg76
(lp482
g69
(g70
g71
NtRp483
(dp484
g74
(dp485
g82
I5
ssg83
g479
sg76
(lp486
g69
(g78
g71
NtRp487
(dp488
g74
(dp489
g82
I4
ssg83
Nsg76
(lp490
g69
(g85
g71
NtRp491
(dp492
g74
(dp493
sg83
g487
sg76
(lp494
g69
(g90
g71
NtRp495
(dp496
g74
(dp497
g94
g95
ssg83
g491
sg76
(lp498
S'app_folders'
p499
asbag69
(g90
g71
NtRp500
(dp501
g74
(dp502
g101
g102
ssg83
g491
sg76
(lp503
S':'
asbag69
(g90
g71
NtRp504
(dp505
g74
(dp506
sg83
g491
sg76
(lp507
g69
(g70
g71
NtRp508
(dp509
g74
(dp510
g82
I4
ssg83
g504
sg76
(lp511
S"set(['/home/rochacbruno/Dropbox/stoodos/w2p/web2py/applications/blog/'])"
p512
asbasbasbag69
(g85
g71
NtRp513
(dp514
g74
(dp515
sg83
g487
sg76
(lp516
g69
(g90
g71
NtRp517
(dp518
g74
(dp519
g94
g95
ssg83
g513
sg76
(lp520
S'applications_parent'
p521
asbag69
(g90
g71
NtRp522
(dp523
g74
(dp524
g101
g102
ssg83
g513
sg76
(lp525
S':'
asbag69
(g90
g71
NtRp526
(dp527
g74
(dp528
sg83
g513
sg76
(lp529
g69
(g70
g71
NtRp530
(dp531
g74
(dp532
g82
I4
ssg83
g526
sg76
(lp533
S'/home/rochacbruno/Dropbox/stoodos/w2p/web2py'
p534
asbasbasbag69
(g85
g71
NtRp535
(dp536
g74
(dp537
sg83
g487
sg76
(lp538
g69
(g90
g71
NtRp539
(dp540
g74
(dp541
g94
g95
ssg83
g535
sg76
(lp542
S'cmd_args'
p543
asbag69
(g90
g71
NtRp544
(dp545
g74
(dp546
g101
g102
ssg83
g535
sg76
(lp547
S':'
asbag69
(g90
g71
NtRp548
(dp549
g74
(dp550
sg83
g535
sg76
(lp551
g69
(g70
g71
NtRp552
(dp553
g74
(dp554
g82
I4
ssg83
g548
sg76
(lp555
g69
(g78
g71
NtRp556
(dp557
g74
(dp558
g82
I3
ssg83
Nsg76
(lp559
sbasbasbasbag69
(g85
g71
NtRp560
(dp561
g74
(dp562
sg83
g487
sg76
(lp563
g69
(g90
g71
NtRp564
(dp565
g74
(dp566
g94
g95
ssg83
g560
sg76
(lp567
S'cmd_options'
p568
asbag69
(g90
g71
NtRp569
(dp570
g74
(dp571
g101
g102
ssg83
g560
sg76
(lp572
S':'
asbag69
(g90
g71
NtRp573
(dp574
g74
(dp575
sg83
g560
sg76
(lp576
g69
(g70
g71
NtRp577
(dp578
g74
(dp579
g82
I4
ssg83
g573
sg76
(lp580
S"<Values at 0x2d93a28: {'verbose': False, 'ip': '127.0.0.1', 'with_scheduler': False, 'ips': [], 'shutdown_timeout': 5, 'taskbar': False, 'port': 8000, 'maxthreads': None, 'softcron': False, 'server_name': 'crunchbang', 'bpython': False, 'nogui': False, 'pid_filename': 'httpserver.pid', 'extcron': False, 'runcron': False, 'run_system_tests': False, 'test': None, 'folder': '/home/rochacbruno/Dropbox/stoodos/w2p/web2py', 'config': '', 'minthreads': None, 'winservice': '', 'shell': None, 'run': '', 'log_filename': 'httpserver.log', 'debuglevel': 30, 'args': [''], 'socket_timeout': 5, 'ssl_ca_certificate': None, 'scheduler': None, 'profiler_filename': None, 'ssl_private_key': '', 'scheduler_groups': None, 'password': '1234', 'request_queue_size': 5, 'ssl_certificate': '', 'cronjob': False, 'numthreads': None, 'quiet': False, 'interfaces': None, 'import_models': False, 'timeout': 10, 'plain': False, 'nobanner': False}>"
p581
asbasbasbag69
(g85
g71
NtRp582
(dp583
g74
(dp584
sg83
g487
sg76
(lp585
g69
(g90
g71
NtRp586
(dp587
g74
(dp588
g94
g95
ssg83
g582
sg76
(lp589
S'db_sessions'
p590
asbag69
(g90
g71
NtRp591
(dp592
g74
(dp593
g101
g102
ssg83
g582
sg76
(lp594
S':'
asbag69
(g90
g71
NtRp595
(dp596
g74
(dp597
sg83
g582
sg76
(lp598
g69
(g70
g71
NtRp599
(dp600
g74
(dp601
g82
I4
ssg83
g595
sg76
(lp602
S'set([])'
p603
asbasbasbag69
(g85
g71
NtRp604
(dp605
g74
(dp606
sg83
g487
sg76
(lp607
g69
(g90
g71
NtRp608
(dp609
g74
(dp610
g94
g95
ssg83
g604
sg76
(lp611
S'debugging'
p612
asbag69
(g90
g71
NtRp613
(dp614
g74
(dp615
g101
g102
ssg83
g604
sg76
(lp616
S':'
asbag69
(g90
g71
NtRp617
(dp618
g74
(dp619
sg83
g604
sg76
(lp620
g69
(g70
g71
NtRp621
(dp622
g74
(dp623
g82
I4
ssg83
g617
sg76
(lp624
g112
asbasbasbag69
(g85
g71
NtRp625
(dp626
g74
(dp627
sg83
g487
sg76
(lp628
g69
(g90
g71
NtRp629
(dp630
g74
(dp631
g94
g95
ssg83
g625
sg76
(lp632
S'gluon_parent'
p633
asbag69
(g90
g71
NtRp634
(dp635
g74
(dp636
g101
g102
ssg83
g625
sg76
(lp637
S':'
asbag69
(g90
g71
NtRp638
(dp639
g74
(dp640
sg83
g625
sg76
(lp641
g69
(g70
g71
NtRp642
(dp643
g74
(dp644
g82
I4
ssg83
g638
sg76
(lp645
S'/home/rochacbruno/Dropbox/stoodos/w2p/web2py'
p646
asbasbasbag69
(g85
g71
NtRp647
(dp648
g74
(dp649
sg83
g487
sg76
(lp650
g69
(g90
g71
NtRp651
(dp652
g74
(dp653
g94
g95
ssg83
g647
sg76
(lp654
S'http_accept'
p655
asbag69
(g90
g71
NtRp656
(dp657
g74
(dp658
g101
g102
ssg83
g647
sg76
(lp659
S':'
asbag69
(g90
g71
NtRp660
(dp661
g74
(dp662
sg83
g647
sg76
(lp663
g69
(g70
g71
NtRp664
(dp665
g74
(dp666
g82
I4
ssg83
g660
sg76
(lp667
S'text/html,application/xhtml+xml,application/xml;q=0.9,*/*;q=0.8'
p668
asbasbasbag69
(g85
g71
NtRp669
(dp670
g74
(dp671
sg83
g487
sg76
(lp672
g69
(g90
g71
NtRp673
(dp674
g74
(dp675
g94
g95
ssg83
g669
sg76
(lp676
S'http_accept_charset'
p677
asbag69
(g90
g71
NtRp678
(dp679
g74
(dp680
g101
g102
ssg83
g669
sg76
(lp681
S':'
asbag69
(g90
g71
NtRp682
(dp683
g74
(dp684
sg83
g669
sg76
(lp685
g69
(g70
g71
NtRp686
(dp687
g74
(dp688
g82
I4
ssg83
g682
sg76
(lp689
S'ISO-8859-1,utf-8;q=0.7,*;q=0.3'
p690
asbasbasbag69
(g85
g71
NtRp691
(dp692
g74
(dp693
sg83
g487
sg76
(lp694
g69
(g90
g71
NtRp695
(dp696
g74
(dp697
g94
g95
ssg83
g691
sg76
(lp698
S'http_accept_encoding'
p699
asbag69
(g90
g71
NtRp700
(dp701
g74
(dp702
g101
g102
ssg83
g691
sg76
(lp703
S':'
asbag69
(g90
g71
NtRp704
(dp705
g74
(dp706
sg83
g691
sg76
(lp707
g69
(g70
g71
NtRp708
(dp709
g74
(dp710
g82
I4
ssg83
g704
sg76
(lp711
S'gzip,deflate,sdch'
p712
asbasbasbag69
(g85
g71
NtRp713
(dp714
g74
(dp715
sg83
g487
sg76
(lp716
g69
(g90
g71
NtRp717
(dp718
g74
(dp719
g94
g95
ssg83
g713
sg76
(lp720
S'http_accept_language'
p721
asbag69
(g90
g71
NtRp722
(dp723
g74
(dp724
g101
g102
ssg83
g713
sg76
(lp725
S':'
asbag69
(g90
g71
NtRp726
(dp727
g74
(dp728
sg83
g713
sg76
(lp729
g69
(g70
g71
NtRp730
(dp731
g74
(dp732
g82
I4
ssg83
g726
sg76
(lp733
S'pt-BR,pt;q=0.8,en-US;q=0.6,en;q=0.4'
p734
asbasbasbag69
(g85
g71
NtRp735
(dp736
g74
(dp737
sg83
g487
sg76
(lp738
g69
(g90
g71
NtRp739
(dp740
g74
(dp741
g94
g95
ssg83
g735
sg76
(lp742
S'http_cache_control'
p743
asbag69
(g90
g71
NtRp744
(dp745
g74
(dp746
g101
g102
ssg83
g735
sg76
(lp747
S':'
asbag69
(g90
g71
NtRp748
(dp749
g74
(dp750
sg83
g735
sg76
(lp751
g69
(g70
g71
NtRp752
(dp753
g74
(dp754
g82
I4
ssg83
g748
sg76
(lp755
S'max-age=0'
p756
asbasbasbag69
(g85
g71
NtRp757
(dp758
g74
(dp759
sg83
g487
sg76
(lp760
g69
(g90
g71
NtRp761
(dp762
g74
(dp763
g94
g95
ssg83
g757
sg76
(lp764
S'http_connection'
p765
asbag69
(g90
g71
NtRp766
(dp767
g74
(dp768
g101
g102
ssg83
g757
sg76
(lp769
S':'
asbag69
(g90
g71
NtRp770
(dp771
g74
(dp772
sg83
g757
sg76
(lp773
g69
(g70
g71
NtRp774
(dp775
g74
(dp776
g82
I4
ssg83
g770
sg76
(lp777
S'keep-alive'
p778
asbasbasbag69
(g85
g71
NtRp779
(dp780
g74
(dp781
sg83
g487
sg76
(lp782
g69
(g90
g71
NtRp783
(dp784
g74
(dp785
g94
g95
ssg83
g779
sg76
(lp786
S'http_cookie'
p787
asbag69
(g90
g71
NtRp788
(dp789
g74
(dp790
g101
g102
ssg83
g779
sg76
(lp791
S':'
asbag69
(g90
g71
NtRp792
(dp793
g74
(dp794
sg83
g779
sg76
(lp795
g69
(g70
g71
NtRp796
(dp797
g74
(dp798
g82
I4
ssg83
g792
sg76
(lp799
S'session_id_blog=127.0.0.1-41f3a938-69d7-4315-b7a4-8e2d90d156b9'
p800
asbasbasbag69
(g85
g71
NtRp801
(dp802
g74
(dp803
sg83
g487
sg76
(lp804
g69
(g90
g71
NtRp805
(dp806
g74
(dp807
g94
g95
ssg83
g801
sg76
(lp808
S'http_host'
p809
asbag69
(g90
g71
NtRp810
(dp811
g74
(dp812
g101
g102
ssg83
g801
sg76
(lp813
S':'
asbag69
(g90
g71
NtRp814
(dp815
g74
(dp816
sg83
g801
sg76
(lp817
g69
(g70
g71
NtRp818
(dp819
g74
(dp820
g82
I4
ssg83
g814
sg76
(lp821
S'localhost:8000'
p822
asbasbasbag69
(g85
g71
NtRp823
(dp824
g74
(dp825
sg83
g487
sg76
(lp826
g69
(g90
g71
NtRp827
(dp828
g74
(dp829
g94
g95
ssg83
g823
sg76
(lp830
S'http_user_agent'
p831
asbag69
(g90
g71
NtRp832
(dp833
g74
(dp834
g101
g102
ssg83
g823
sg76
(lp835
S':'
asbag69
(g90
g71
NtRp836
(dp837
g74
(dp838
sg83
g823
sg76
(lp839
g69
(g70
g71
NtRp840
(dp841
g74
(dp842
g82
I4
ssg83
g836
sg76
(lp843
S'Mozilla/5.0 (X11; Linux x86_64) AppleWebKit/537.11 (KHTML, like Gecko) Chrome/23.0.1271.97 Safari/537.11'
p844
asbasbasbag69
(g85
g71
NtRp845
(dp846
g74
(dp847
sg83
g487
sg76
(lp848
g69
(g90
g71
NtRp849
(dp850
g74
(dp851
g94
g95
ssg83
g845
sg76
(lp852
S'is_jython'
p853
asbag69
(g90
g71
NtRp854
(dp855
g74
(dp856
g101
g102
ssg83
g845
sg76
(lp857
S':'
asbag69
(g90
g71
NtRp858
(dp859
g74
(dp860
sg83
g845
sg76
(lp861
g69
(g70
g71
NtRp862
(dp863
g74
(dp864
g82
I4
ssg83
g858
sg76
(lp865
g112
asbasbasbag69
(g85
g71
NtRp866
(dp867
g74
(dp868
sg83
g487
sg76
(lp869
g69
(g90
g71
NtRp870
(dp871
g74
(dp872
g94
g95
ssg83
g866
sg76
(lp873
S'is_pypy'
p874
asbag69
(g90
g71
NtRp875
(dp876
g74
(dp877
g101
g102
ssg83
g866
sg76
(lp878
S':'
asbag69
(g90
g71
NtRp879
(dp880
g74
(dp881
sg83
g866
sg76
(lp882
g69
(g70
g71
NtRp883
(dp884
g74
(dp885
g82
I4
ssg83
g879
sg76
(lp886
g112
asbasbasbag69
(g85
g71
NtRp887
(dp888
g74
(dp889
sg83
g487
sg76
(lp890
g69
(g90
g71
NtRp891
(dp892
g74
(dp893
g94
g95
ssg83
g887
sg76
(lp894
S'local_hosts'
p895
asbag69
(g90
g71
NtRp896
(dp897
g74
(dp898
g101
g102
ssg83
g887
sg76
(lp899
S':'
asbag69
(g90
g71
NtRp900
(dp901
g74
(dp902
sg83
g887
sg76
(lp903
g69
(g70
g71
NtRp904
(dp905
g74
(dp906
g82
I4
ssg83
g900
sg76
(lp907
g69
(g78
g71
NtRp908
(dp909
g74
(dp910
g82
I3
ssg83
Nsg76
(lp911
g69
(g85
g71
NtRp912
(dp913
g74
(dp914
sg83
g908
sg76
(lp915
g69
(g90
g71
NtRp916
(dp917
g74
(dp918
sg83
g912
sg76
(lp919
g69
(g70
g71
NtRp920
(dp921
g74
(dp922
g82
I3
ssg83
g916
sg76
(lp923
S'127.0.1.1'
p924
asbasbasbag69
(g85
g71
NtRp925
(dp926
g74
(dp927
sg83
g908
sg76
(lp928
g69
(g90
g71
NtRp929
(dp930
g74
(dp931
sg83
g925
sg76
(lp932
g69
(g70
g71
NtRp933
(dp934
g74
(dp935
g82
I3
ssg83
g929
sg76
(lp936
S'::1'
p937
asbasbasbag69
(g85
g71
NtRp938
(dp939
g74
(dp940
sg83
g908
sg76
(lp941
g69
(g90
g71
NtRp942
(dp943
g74
(dp944
sg83
g938
sg76
(lp945
g69
(g70
g71
NtRp946
(dp947
g74
(dp948
g82
I3
ssg83
g942
sg76
(lp949
S'crunchbang'
p950
asbasbasbag69
(g85
g71
NtRp951
(dp952
g74
(dp953
sg83
g908
sg76
(lp954
g69
(g90
g71
NtRp955
(dp956
g74
(dp957
sg83
g951
sg76
(lp958
g69
(g70
g71
NtRp959
(dp960
g74
(dp961
g82
I3
ssg83
g955
sg76
(lp962
S'::ffff:127.0.0.1'
p963
asbasbasbag69
(g85
g71
NtRp964
(dp965
g74
(dp966
sg83
g908
sg76
(lp967
g69
(g90
g71
NtRp968
(dp969
g74
(dp970
sg83
g964
sg76
(lp971
g69
(g70
g71
NtRp972
(dp973
g74
(dp974
g82
I3
ssg83
g968
sg76
(lp975
S'127.0.0.1'
p976
asbasbasbasbasbasbasbag69
(g85
g71
NtRp977
(dp978
g74
(dp979
sg83
g487
sg76
(lp980
g69
(g90
g71
NtRp981
(dp982
g74
(dp983
g94
g95
ssg83
g977
sg76
(lp984
S'path_info'
p985
asbag69
(g90
g71
NtRp986
(dp987
g74
(dp988
g101
g102
ssg83
g977
sg76
(lp989
S':'
asbag69
(g90
g71
NtRp990
(dp991
g74
(dp992
sg83
g977
sg76
(lp993
g69
(g70
g71
NtRp994
(dp995
g74
(dp996
g82
I4
ssg83
g990
sg76
(lp997
S'/post/add'
p998
asbasbasbag69
(g85
g71
NtRp999
(dp1000
g74
(dp1001
sg83
g487
sg76
(lp1002
g69
(g90
g71
NtRp1003
(dp1004
g74
(dp1005
g94
g95
ssg83
g999
sg76
(lp1006
S'query_string'
p1007
asbag69
(g90
g71
NtRp1008
(dp1009
g74
(dp1010
g101
g102
ssg83
g999
sg76
(lp1011
S':'
asbag69
(g90
g71
NtRp1012
(dp1013
g74
(dp1014
sg83
g999
sg76
(lp1015
g69
(g70
g71
NtRp1016
(dp1017
g74
(dp1018
g82
I4
ssg83
g1012
sg76
(lp1019
S'postid=1'
p1020
asbasbasbag69
(g85
g71
NtRp1021
(dp1022
g74
(dp1023
sg83
g487
sg76
(lp1024
g69
(g90
g71
NtRp1025
(dp1026
g74
(dp1027
g94
g95
ssg83
g1021
sg76
(lp1028
S'remote_addr'
p1029
asbag69
(g90
g71
NtRp1030
(dp1031
g74
(dp1032
g101
g102
ssg83
g1021
sg76
(lp1033
S':'
asbag69
(g90
g71
NtRp1034
(dp1035
g74
(dp1036
sg83
g1021
sg76
(lp1037
g69
(g70
g71
NtRp1038
(dp1039
g74
(dp1040
g82
I4
ssg83
g1034
sg76
(lp1041
g224
asbasbasbag69
(g85
g71
NtRp1042
(dp1043
g74
(dp1044
sg83
g487
sg76
(lp1045
g69
(g90
g71
NtRp1046
(dp1047
g74
(dp1048
g94
g95
ssg83
g1042
sg76
(lp1049
S'remote_port'
p1050
asbag69
(g90
g71
NtRp1051
(dp1052
g74
(dp1053
g101
g102
ssg83
g1042
sg76
(lp1054
S':'
asbag69
(g90
g71
NtRp1055
(dp1056
g74
(dp1057
sg83
g1042
sg76
(lp1058
g69
(g70
g71
NtRp1059
(dp1060
g74
(dp1061
g82
I4
ssg83
g1055
sg76
(lp1062
S'36790'
p1063
asbasbasbag69
(g85
g71
NtRp1064
(dp1065
g74
(dp1066
sg83
g487
sg76
(lp1067
g69
(g90
g71
NtRp1068
(dp1069
g74
(dp1070
g94
g95
ssg83
g1064
sg76
(lp1071
S'request_method'
p1072
asbag69
(g90
g71
NtRp1073
(dp1074
g74
(dp1075
g101
g102
ssg83
g1064
sg76
(lp1076
S':'
asbag69
(g90
g71
NtRp1077
(dp1078
g74
(dp1079
sg83
g1064
sg76
(lp1080
g69
(g70
g71
NtRp1081
(dp1082
g74
(dp1083
g82
I4
ssg83
g1077
sg76
(lp1084
S'GET'
p1085
asbasbasbag69
(g85
g71
NtRp1086
(dp1087
g74
(dp1088
sg83
g487
sg76
(lp1089
g69
(g90
g71
NtRp1090
(dp1091
g74
(dp1092
g94
g95
ssg83
g1086
sg76
(lp1093
S'request_uri'
p1094
asbag69
(g90
g71
NtRp1095
(dp1096
g74
(dp1097
g101
g102
ssg83
g1086
sg76
(lp1098
S':'
asbag69
(g90
g71
NtRp1099
(dp1100
g74
(dp1101
sg83
g1086
sg76
(lp1102
g69
(g70
g71
NtRp1103
(dp1104
g74
(dp1105
g82
I4
ssg83
g1099
sg76
(lp1106
S'/blog/post/add?postid=1'
p1107
asbasbasbag69
(g85
g71
NtRp1108
(dp1109
g74
(dp1110
sg83
g487
sg76
(lp1111
g69
(g90
g71
NtRp1112
(dp1113
g74
(dp1114
g94
g95
ssg83
g1108
sg76
(lp1115
S'script_name'
p1116
asbag69
(g90
g71
NtRp1117
(dp1118
g74
(dp1119
g101
g102
ssg83
g1108
sg76
(lp1120
S':'
asbag69
(g90
g71
NtRp1121
(dp1122
g74
(dp1123
sg83
g1108
sg76
(lp1124
g69
(g70
g71
NtRp1125
(dp1126
g74
(dp1127
g82
I4
ssg83
g1121
sg76
(lp1128
S''
asbasbasbag69
(g85
g71
NtRp1129
(dp1130
g74
(dp1131
sg83
g487
sg76
(lp1132
g69
(g90
g71
NtRp1133
(dp1134
g74
(dp1135
g94
g95
ssg83
g1129
sg76
(lp1136
S'server_name'
p1137
asbag69
(g90
g71
NtRp1138
(dp1139
g74
(dp1140
g101
g102
ssg83
g1129
sg76
(lp1141
S':'
asbag69
(g90
g71
NtRp1142
(dp1143
g74
(dp1144
sg83
g1129
sg76
(lp1145
g69
(g70
g71
NtRp1146
(dp1147
g74
(dp1148
g82
I4
ssg83
g1142
sg76
(lp1149
S'crunchbang'
p1150
asbasbasbag69
(g85
g71
NtRp1151
(dp1152
g74
(dp1153
sg83
g487
sg76
(lp1154
g69
(g90
g71
NtRp1155
(dp1156
g74
(dp1157
g94
g95
ssg83
g1151
sg76
(lp1158
S'server_port'
p1159
asbag69
(g90
g71
NtRp1160
(dp1161
g74
(dp1162
g101
g102
ssg83
g1151
sg76
(lp1163
S':'
asbag69
(g90
g71
NtRp1164
(dp1165
g74
(dp1166
sg83
g1151
sg76
(lp1167
g69
(g70
g71
NtRp1168
(dp1169
g74
(dp1170
g82
I4
ssg83
g1164
sg76
(lp1171
S'8000'
p1172
asbasbasbag69
(g85
g71
NtRp1173
(dp1174
g74
(dp1175
sg83
g487
sg76
(lp1176
g69
(g90
g71
NtRp1177
(dp1178
g74
(dp1179
g94
g95
ssg83
g1173
sg76
(lp1180
S'server_protocol'
p1181
asbag69
(g90
g71
NtRp1182
(dp1183
g74
(dp1184
g101
g102
ssg83
g1173
sg76
(lp1185
S':'
asbag69
(g90
g71
NtRp1186
(dp1187
g74
(dp1188
sg83
g1173
sg76
(lp1189
g69
(g70
g71
NtRp1190
(dp1191
g74
(dp1192
g82
I4
ssg83
g1186
sg76
(lp1193
S'HTTP/1.1'
p1194
asbasbasbag69
(g85
g71
NtRp1195
(dp1196
g74
(dp1197
sg83
g487
sg76
(lp1198
g69
(g90
g71
NtRp1199
(dp1200
g74
(dp1201
g94
g95
ssg83
g1195
sg76
(lp1202
S'server_software'
p1203
asbag69
(g90
g71
NtRp1204
(dp1205
g74
(dp1206
g101
g102
ssg83
g1195
sg76
(lp1207
S':'
asbag69
(g90
g71
NtRp1208
(dp1209
g74
(dp1210
sg83
g1195
sg76
(lp1211
g69
(g70
g71
NtRp1212
(dp1213
g74
(dp1214
g82
I4
ssg83
g1208
sg76
(lp1215
S'Rocket 1.2.6'
p1216
asbasbasbag69
(g85
g71
NtRp1217
(dp1218
g74
(dp1219
sg83
g487
sg76
(lp1220
g69
(g90
g71
NtRp1221
(dp1222
g74
(dp1223
g94
g95
ssg83
g1217
sg76
(lp1224
S'web2py_original_uri'
p1225
asbag69
(g90
g71
NtRp1226
(dp1227
g74
(dp1228
g101
g102
ssg83
g1217
sg76
(lp1229
S':'
asbag69
(g90
g71
NtRp1230
(dp1231
g74
(dp1232
sg83
g1217
sg76
(lp1233
g69
(g70
g71
NtRp1234
(dp1235
g74
(dp1236
g82
I4
ssg83
g1230
sg76
(lp1237
S'/post/add?postid=1'
p1238
asbasbasbag69
(g85
g71
NtRp1239
(dp1240
g74
(dp1241
sg83
g487
sg76
(lp1242
g69
(g90
g71
NtRp1243
(dp1244
g74
(dp1245
g94
g95
ssg83
g1239
sg76
(lp1246
S'web2py_path'
p1247
asbag69
(g90
g71
NtRp1248
(dp1249
g74
(dp1250
g101
g102
ssg83
g1239
sg76
(lp1251
S':'
asbag69
(g90
g71
NtRp1252
(dp1253
g74
(dp1254
sg83
g1239
sg76
(lp1255
g69
(g70
g71
NtRp1256
(dp1257
g74
(dp1258
g82
I4
ssg83
g1252
sg76
(lp1259
g534
asbasbasbag69
(g85
g71
NtRp1260
(dp1261
g74
(dp1262
sg83
g487
sg76
(lp1263
g69
(g90
g71
NtRp1264
(dp1265
g74
(dp1266
g94
g95
ssg83
g1260
sg76
(lp1267
S'web2py_version'
p1268
asbag69
(g90
g71
NtRp1269
(dp1270
g74
(dp1271
g101
g102
ssg83
g1260
sg76
(lp1272
S':'
asbag69
(g90
g71
NtRp1273
(dp1274
g74
(dp1275
sg83
g1260
sg76
(lp1276
g69
(g70
g71
NtRp1277
(dp1278
g74
(dp1279
g82
I4
ssg83
g1273
sg76
(lp1280
g69
(g78
g71
NtRp1281
(dp1282
g74
(dp1283
g82
I3
ssg83
Nsg76
(lp1284
g69
(g85
g71
NtRp1285
(dp1286
g74
(dp1287
sg83
g1281
sg76
(lp1288
g69
(g90
g71
NtRp1289
(dp1290
g74
(dp1291
sg83
g1285
sg76
(lp1292
g69
(g70
g71
NtRp1293
(dp1294
g74
(dp1295
g82
I3
ssg83
g1289
sg76
(lp1296
S'2'
asbasbasbag69
(g85
g71
NtRp1297
(dp1298
g74
(dp1299
sg83
g1281
sg76
(lp1300
g69
(g90
g71
NtRp1301
(dp1302
g74
(dp1303
sg83
g1297
sg76
(lp1304
g69
(g70
g71
NtRp1305
(dp1306
g74
(dp1307
g82
I3
ssg83
g1301
sg76
(lp1308
S'4'
asbasbasbag69
(g85
g71
NtRp1309
(dp1310
g74
(dp1311
sg83
g1281
sg76
(lp1312
g69
(g90
g71
NtRp1313
(dp1314
g74
(dp1315
sg83
g1309
sg76
(lp1316
g69
(g70
g71
NtRp1317
(dp1318
g74
(dp1319
g82
I3
ssg83
g1313
sg76
(lp1320
S'1'
asbasbasbag69
(g85
g71
NtRp1321
(dp1322
g74
(dp1323
sg83
g1281
sg76
(lp1324
g69
(g90
g71
NtRp1325
(dp1326
g74
(dp1327
sg83
g1321
sg76
(lp1328
g69
(g70
g71
NtRp1329
(dp1330
g74
(dp1331
g82
I3
ssg83
g1325
sg76
(lp1332
S'alpha.2'
p1333
asbasbasbag69
(g85
g71
NtRp1334
(dp1335
g74
(dp1336
sg83
g1281
sg76
(lp1337
g69
(g90
g71
NtRp1338
(dp1339
g74
(dp1340
sg83
g1334
sg76
(lp1341
g69
(g70
g71
NtRp1342
(dp1343
g74
(dp1344
g82
I3
ssg83
g1338
sg76
(lp1345
S'datetime.datetime(2013, 1, 10, 15, 12, 56)'
p1346
asbasbasbasbasbasbasbag69
(g85
g71
NtRp1347
(dp1348
g74
(dp1349
sg83
g487
sg76
(lp1350
g69
(g90
g71
NtRp1351
(dp1352
g74
(dp1353
g94
g95
ssg83
g1347
sg76
(lp1354
S'wsgi_errors'
p1355
asbag69
(g90
g71
NtRp1356
(dp1357
g74
(dp1358
g101
g102
ssg83
g1347
sg76
(lp1359
S':'
asbag69
(g90
g71
NtRp1360
(dp1361
g74
(dp1362
sg83
g1347
sg76
(lp1363
g69
(g70
g71
NtRp1364
(dp1365
g74
(dp1366
g82
I4
ssg83
g1360
sg76
(lp1367
S"<open file '<stderr>', mode 'w' at 0x7faa84f02270>"
p1368
asbasbasbag69
(g85
g71
NtRp1369
(dp1370
g74
(dp1371
sg83
g487
sg76
(lp1372
g69
(g90
g71
NtRp1373
(dp1374
g74
(dp1375
g94
g95
ssg83
g1369
sg76
(lp1376
S'wsgi_file_wrapper'
p1377
asbag69
(g90
g71
NtRp1378
(dp1379
g74
(dp1380
g101
g102
ssg83
g1369
sg76
(lp1381
S':'
asbag69
(g90
g71
NtRp1382
(dp1383
g74
(dp1384
sg83
g1369
sg76
(lp1385
g69
(g70
g71
NtRp1386
(dp1387
g74
(dp1388
g82
I4
ssg83
g1382
sg76
(lp1389
S'<class wsgiref.util.FileWrapper at 0x35cd7a0>'
p1390
asbasbasbag69
(g85
g71
NtRp1391
(dp1392
g74
(dp1393
sg83
g487
sg76
(lp1394
g69
(g90
g71
NtRp1395
(dp1396
g74
(dp1397
g94
g95
ssg83
g1391
sg76
(lp1398
S'wsgi_input'
p1399
asbag69
(g90
g71
NtRp1400
(dp1401
g74
(dp1402
g101
g102
ssg83
g1391
sg76
(lp1403
S':'
asbag69
(g90
g71
NtRp1404
(dp1405
g74
(dp1406
sg83
g1391
sg76
(lp1407
g69
(g70
g71
NtRp1408
(dp1409
g74
(dp1410
g82
I4
ssg83
g1404
sg76
(lp1411
S'<socket._fileobject object at 0x2c19750>'
p1412
asbasbasbag69
(g85
g71
NtRp1413
(dp1414
g74
(dp1415
sg83
g487
sg76
(lp1416
g69
(g90
g71
NtRp1417
(dp1418
g74
(dp1419
g94
g95
ssg83
g1413
sg76
(lp1420
S'wsgi_multiprocess'
p1421
asbag69
(g90
g71
NtRp1422
(dp1423
g74
(dp1424
g101
g102
ssg83
g1413
sg76
(lp1425
S':'
asbag69
(g90
g71
NtRp1426
(dp1427
g74
(dp1428
sg83
g1413
sg76
(lp1429
g69
(g70
g71
NtRp1430
(dp1431
g74
(dp1432
g82
I4
ssg83
g1426
sg76
(lp1433
g112
asbasbasbag69
(g85
g71
NtRp1434
(dp1435
g74
(dp1436
sg83
g487
sg76
(lp1437
g69
(g90
g71
NtRp1438
(dp1439
g74
(dp1440
g94
g95
ssg83
g1434
sg76
(lp1441
S'wsgi_multithread'
p1442
asbag69
(g90
g71
NtRp1443
(dp1444
g74
(dp1445
g101
g102
ssg83
g1434
sg76
(lp1446
S':'
asbag69
(g90
g71
NtRp1447
(dp1448
g74
(dp1449
sg83
g1434
sg76
(lp1450
g69
(g70
g71
NtRp1451
(dp1452
g74
(dp1453
g82
I4
ssg83
g1447
sg76
(lp1454
S'True'
p1455
asbasbasbag69
(g85
g71
NtRp1456
(dp1457
g74
(dp1458
sg83
g487
sg76
(lp1459
g69
(g90
g71
NtRp1460
(dp1461
g74
(dp1462
g94
g95
ssg83
g1456
sg76
(lp1463
S'wsgi_run_once'
p1464
asbag69
(g90
g71
NtRp1465
(dp1466
g74
(dp1467
g101
g102
ssg83
g1456
sg76
(lp1468
S':'
asbag69
(g90
g71
NtRp1469
(dp1470
g74
(dp1471
sg83
g1456
sg76
(lp1472
g69
(g70
g71
NtRp1473
(dp1474
g74
(dp1475
g82
I4
ssg83
g1469
sg76
(lp1476
g112
asbasbasbag69
(g85
g71
NtRp1477
(dp1478
g74
(dp1479
sg83
g487
sg76
(lp1480
g69
(g90
g71
NtRp1481
(dp1482
g74
(dp1483
g94
g95
ssg83
g1477
sg76
(lp1484
S'wsgi_url_scheme'
p1485
asbag69
(g90
g71
NtRp1486
(dp1487
g74
(dp1488
g101
g102
ssg83
g1477
sg76
(lp1489
S':'
asbag69
(g90
g71
NtRp1490
(dp1491
g74
(dp1492
sg83
g1477
sg76
(lp1493
g69
(g70
g71
NtRp1494
(dp1495
g74
(dp1496
g82
I4
ssg83
g1490
sg76
(lp1497
S'http'
p1498
asbasbasbag69
(g85
g71
NtRp1499
(dp1500
g74
(dp1501
sg83
g487
sg76
(lp1502
g69
(g90
g71
NtRp1503
(dp1504
g74
(dp1505
g94
g95
ssg83
g1499
sg76
(lp1506
S'wsgi_version'
p1507
asbag69
(g90
g71
NtRp1508
(dp1509
g74
(dp1510
g101
g102
ssg83
g1499
sg76
(lp1511
S':'
asbag69
(g90
g71
NtRp1512
(dp1513
g74
(dp1514
sg83
g1499
sg76
(lp1515
g69
(g70
g71
NtRp1516
(dp1517
g74
(dp1518
g82
I4
ssg83
g1512
sg76
(lp1519
g69
(g78
g71
NtRp1520
(dp1521
g74
(dp1522
g82
I3
ssg83
Nsg76
(lp1523
g69
(g85
g71
NtRp1524
(dp1525
g74
(dp1526
sg83
g1520
sg76
(lp1527
g69
(g90
g71
NtRp1528
(dp1529
g74
(dp1530
sg83
g1524
sg76
(lp1531
g69
(g70
g71
NtRp1532
(dp1533
g74
(dp1534
g82
I3
ssg83
g1528
sg76
(lp1535
S'1'
asbasbasbag69
(g85
g71
NtRp1536
(dp1537
g74
(dp1538
sg83
g1520
sg76
(lp1539
g69
(g90
g71
NtRp1540
(dp1541
g74
(dp1542
sg83
g1536
sg76
(lp1543
g69
(g70
g71
NtRp1544
(dp1545
g74
(dp1546
g82
I3
ssg83
g1540
sg76
(lp1547
S'0'
asbasbasbasbasbasbasbasbasbasbasbag69
(g85
g71
NtRp1548
(dp1549
g74
(dp1550
sg83
g79
sg76
(lp1551
g69
(g90
g71
NtRp1552
(dp1553
g74
(dp1554
g94
g95
ssg83
g1548
sg76
(lp1555
S'extension'
p1556
asbag69
(g90
g71
NtRp1557
(dp1558
g74
(dp1559
g101
g102
ssg83
g1548
sg76
(lp1560
S':'
asbag69
(g90
g71
NtRp1561
(dp1562
g74
(dp1563
sg83
g1548
sg76
(lp1564
g69
(g70
g71
NtRp1565
(dp1566
g74
(dp1567
g82
I5
ssg83
g1561
sg76
(lp1568
S'html'
p1569
asbasbasbag69
(g85
g71
NtRp1570
(dp1571
g74
(dp1572
sg83
g79
sg76
(lp1573
g69
(g90
g71
NtRp1574
(dp1575
g74
(dp1576
g94
g95
ssg83
g1570
sg76
(lp1577
S'folder'
p1578
asbag69
(g90
g71
NtRp1579
(dp1580
g74
(dp1581
g101
g102
ssg83
g1570
sg76
(lp1582
S':'
asbag69
(g90
g71
NtRp1583
(dp1584
g74
(dp1585
sg83
g1570
sg76
(lp1586
g69
(g70
g71
NtRp1587
(dp1588
g74
(dp1589
g82
I5
ssg83
g1583
sg76
(lp1590
S'/home/rochacbruno/Dropbox/stoodos/w2p/web2py/applications/blog/'
p1591
asbasbasbag69
(g85
g71
NtRp1592
(dp1593
g74
(dp1594
sg83
g79
sg76
(lp1595
g69
(g90
g71
NtRp1596
(dp1597
g74
(dp1598
g94
g95
ssg83
g1592
sg76
(lp1599
S'function'
p1600
asbag69
(g90
g71
NtRp1601
(dp1602
g74
(dp1603
g101
g102
ssg83
g1592
sg76
(lp1604
S':'
asbag69
(g90
g71
NtRp1605
(dp1606
g74
(dp1607
sg83
g1592
sg76
(lp1608
g69
(g70
g71
NtRp1609
(dp1610
g74
(dp1611
g82
I5
ssg83
g1605
sg76
(lp1612
S'add'
p1613
asbasbasbag69
(g85
g71
NtRp1614
(dp1615
g74
(dp1616
sg83
g79
sg76
(lp1617
g69
(g90
g71
NtRp1618
(dp1619
g74
(dp1620
g94
g95
ssg83
g1614
sg76
(lp1621
S'get_vars'
p1622
asbag69
(g90
g71
NtRp1623
(dp1624
g74
(dp1625
g101
g102
ssg83
g1614
sg76
(lp1626
S':'
asbag69
(g90
g71
NtRp1627
(dp1628
g74
(dp1629
sg83
g1614
sg76
(lp1630
g69
(g70
g71
NtRp1631
(dp1632
g74
(dp1633
g82
I5
ssg83
g1627
sg76
(lp1634
g69
(g78
g71
NtRp1635
(dp1636
g74
(dp1637
g82
I4
ssg83
Nsg76
(lp1638
g69
(g85
g71
NtRp1639
(dp1640
g74
(dp1641
sg83
g1635
sg76
(lp1642
g69
(g90
g71
NtRp1643
(dp1644
g74
(dp1645
g94
g95
ssg83
g1639
sg76
(lp1646
S'postid'
p1647
asbag69
(g90
g71
NtRp1648
(dp1649
g74
(dp1650
g101
g102
ssg83
g1639
sg76
(lp1651
S':'
asbag69
(g90
g71
NtRp1652
(dp1653
g74
(dp1654
sg83
g1639
sg76
(lp1655
g69
(g70
g71
NtRp1656
(dp1657
g74
(dp1658
g82
I4
ssg83
g1652
sg76
(lp1659
S'1'
asbasbasbasbasbasbasbag69
(g85
g71
NtRp1660
(dp1661
g74
(dp1662
sg83
g79
sg76
(lp1663
g69
(g90
g71
NtRp1664
(dp1665
g74
(dp1666
g94
g95
ssg83
g1660
sg76
(lp1667
S'global_settings'
p1668
asbag69
(g90
g71
NtRp1669
(dp1670
g74
(dp1671
g101
g102
ssg83
g1660
sg76
(lp1672
S':'
asbag69
(g90
g71
NtRp1673
(dp1674
g74
(dp1675
sg83
g1660
sg76
(lp1676
g69
(g70
g71
NtRp1677
(dp1678
g74
(dp1679
g82
I5
ssg83
g1673
sg76
(lp1680
g69
(g78
g71
NtRp1681
(dp1682
g74
(dp1683
g82
I4
ssg83
Nsg76
(lp1684
g69
(g85
g71
NtRp1685
(dp1686
g74
(dp1687
sg83
g1681
sg76
(lp1688
g69
(g90
g71
NtRp1689
(dp1690
g74
(dp1691
g94
g95
ssg83
g1685
sg76
(lp1692
g499
asbag69
(g90
g71
NtRp1693
(dp1694
g74
(dp1695
g101
g102
ssg83
g1685
sg76
(lp1696
S':'
asbag69
(g90
g71
NtRp1697
(dp1698
g74
(dp1699
sg83
g1685
sg76
(lp1700
g69
(g70
g71
NtRp1701
(dp1702
g74
(dp1703
g82
I4
ssg83
g1697
sg76
(lp1704
S"set(['/home/rochacbruno/Dropbox/stoodos/w2p/web2py/applications/blog/'])"
p1705
asbasbasbag69
(g85
g71
NtRp1706
(dp1707
g74
(dp1708
sg83
g1681
sg76
(lp1709
g69
(g90
g71
NtRp1710
(dp1711
g74
(dp1712
g94
g95
ssg83
g1706
sg76
(lp1713
g521
asbag69
(g90
g71
NtRp1714
(dp1715
g74
(dp1716
g101
g102
ssg83
g1706
sg76
(lp1717
S':'
asbag69
(g90
g71
NtRp1718
(dp1719
g74
(dp1720
sg83
g1706
sg76
(lp1721
g69
(g70
g71
NtRp1722
(dp1723
g74
(dp1724
g82
I4
ssg83
g1718
sg76
(lp1725
g534
asbasbasbag69
(g85
g71
NtRp1726
(dp1727
g74
(dp1728
sg83
g1681
sg76
(lp1729
g69
(g90
g71
NtRp1730
(dp1731
g74
(dp1732
g94
g95
ssg83
g1726
sg76
(lp1733
g543
asbag69
(g90
g71
NtRp1734
(dp1735
g74
(dp1736
g101
g102
ssg83
g1726
sg76
(lp1737
S':'
asbag69
(g90
g71
NtRp1738
(dp1739
g74
(dp1740
sg83
g1726
sg76
(lp1741
g69
(g70
g71
NtRp1742
(dp1743
g74
(dp1744
g82
I4
ssg83
g1738
sg76
(lp1745
g69
(g78
g71
NtRp1746
(dp1747
g74
(dp1748
g82
I3
ssg83
Nsg76
(lp1749
sbasbasbasbag69
(g85
g71
NtRp1750
(dp1751
g74
(dp1752
sg83
g1681
sg76
(lp1753
g69
(g90
g71
NtRp1754
(dp1755
g74
(dp1756
g94
g95
ssg83
g1750
sg76
(lp1757
g568
asbag69
(g90
g71
NtRp1758
(dp1759
g74
(dp1760
g101
g102
ssg83
g1750
sg76
(lp1761
S':'
asbag69
(g90
g71
NtRp1762
(dp1763
g74
(dp1764
sg83
g1750
sg76
(lp1765
g69
(g70
g71
NtRp1766
(dp1767
g74
(dp1768
g82
I4
ssg83
g1762
sg76
(lp1769
S"<Values at 0x2d93a28: {'verbose': False, 'ip': '127.0.0.1', 'with_scheduler': False, 'ips': [], 'shutdown_timeout': 5, 'taskbar': False, 'port': 8000, 'maxthreads': None, 'softcron': False, 'server_name': 'crunchbang', 'bpython': False, 'nogui': False, 'pid_filename': 'httpserver.pid', 'extcron': False, 'runcron': False, 'run_system_tests': False, 'test': None, 'folder': '/home/rochacbruno/Dropbox/stoodos/w2p/web2py', 'config': '', 'minthreads': None, 'winservice': '', 'shell': None, 'run': '', 'log_filename': 'httpserver.log', 'debuglevel': 30, 'args': [''], 'socket_timeout': 5, 'ssl_ca_certificate': None, 'scheduler': None, 'profiler_filename': None, 'ssl_private_key': '', 'scheduler_groups': None, 'password': '1234', 'request_queue_size': 5, 'ssl_certificate': '', 'cronjob': False, 'numthreads': None, 'quiet': False, 'interfaces': None, 'import_models': False, 'timeout': 10, 'plain': False, 'nobanner': False}>"
p1770
asbasbasbag69
(g85
g71
NtRp1771
(dp1772
g74
(dp1773
sg83
g1681
sg76
(lp1774
g69
(g90
g71
NtRp1775
(dp1776
g74
(dp1777
g94
g95
ssg83
g1771
sg76
(lp1778
g590
asbag69
(g90
g71
NtRp1779
(dp1780
g74
(dp1781
g101
g102
ssg83
g1771
sg76
(lp1782
S':'
asbag69
(g90
g71
NtRp1783
(dp1784
g74
(dp1785
sg83
g1771
sg76
(lp1786
g69
(g70
g71
NtRp1787
(dp1788
g74
(dp1789
g82
I4
ssg83
g1783
sg76
(lp1790
S'set([])'
p1791
asbasbasbag69
(g85
g71
NtRp1792
(dp1793
g74
(dp1794
sg83
g1681
sg76
(lp1795
g69
(g90
g71
NtRp1796
(dp1797
g74
(dp1798
g94
g95
ssg83
g1792
sg76
(lp1799
g612
asbag69
(g90
g71
NtRp1800
(dp1801
g74
(dp1802
g101
g102
ssg83
g1792
sg76
(lp1803
S':'
asbag69
(g90
g71
NtRp1804
(dp1805
g74
(dp1806
sg83
g1792
sg76
(lp1807
g69
(g70
g71
NtRp1808
(dp1809
g74
(dp1810
g82
I4
ssg83
g1804
sg76
(lp1811
g112
asbasbasbag69
(g85
g71
NtRp1812
(dp1813
g74
(dp1814
sg83
g1681
sg76
(lp1815
g69
(g90
g71
NtRp1816
(dp1817
g74
(dp1818
g94
g95
ssg83
g1812
sg76
(lp1819
g633
asbag69
(g90
g71
NtRp1820
(dp1821
g74
(dp1822
g101
g102
ssg83
g1812
sg76
(lp1823
S':'
asbag69
(g90
g71
NtRp1824
(dp1825
g74
(dp1826
sg83
g1812
sg76
(lp1827
g69
(g70
g71
NtRp1828
(dp1829
g74
(dp1830
g82
I4
ssg83
g1824
sg76
(lp1831
g646
asbasbasbag69
(g85
g71
NtRp1832
(dp1833
g74
(dp1834
sg83
g1681
sg76
(lp1835
g69
(g90
g71
NtRp1836
(dp1837
g74
(dp1838
g94
g95
ssg83
g1832
sg76
(lp1839
g853
asbag69
(g90
g71
NtRp1840
(dp1841
g74
(dp1842
g101
g102
ssg83
g1832
sg76
(lp1843
S':'
asbag69
(g90
g71
NtRp1844
(dp1845
g74
(dp1846
sg83
g1832
sg76
(lp1847
g69
(g70
g71
NtRp1848
(dp1849
g74
(dp1850
g82
I4
ssg83
g1844
sg76
(lp1851
g112
asbasbasbag69
(g85
g71
NtRp1852
(dp1853
g74
(dp1854
sg83
g1681
sg76
(lp1855
g69
(g90
g71
NtRp1856
(dp1857
g74
(dp1858
g94
g95
ssg83
g1852
sg76
(lp1859
g874
asbag69
(g90
g71
NtRp1860
(dp1861
g74
(dp1862
g101
g102
ssg83
g1852
sg76
(lp1863
S':'
asbag69
(g90
g71
NtRp1864
(dp1865
g74
(dp1866
sg83
g1852
sg76
(lp1867
g69
(g70
g71
NtRp1868
(dp1869
g74
(dp1870
g82
I4
ssg83
g1864
sg76
(lp1871
g112
asbasbasbag69
(g85
g71
NtRp1872
(dp1873
g74
(dp1874
sg83
g1681
sg76
(lp1875
g69
(g90
g71
NtRp1876
(dp1877
g74
(dp1878
g94
g95
ssg83
g1872
sg76
(lp1879
g895
asbag69
(g90
g71
NtRp1880
(dp1881
g74
(dp1882
g101
g102
ssg83
g1872
sg76
(lp1883
S':'
asbag69
(g90
g71
NtRp1884
(dp1885
g74
(dp1886
sg83
g1872
sg76
(lp1887
g69
(g70
g71
NtRp1888
(dp1889
g74
(dp1890
g82
I4
ssg83
g1884
sg76
(lp1891
g69
(g78
g71
NtRp1892
(dp1893
g74
(dp1894
g82
I3
ssg83
Nsg76
(lp1895
g69
(g85
g71
NtRp1896
(dp1897
g74
(dp1898
sg83
g1892
sg76
(lp1899
g69
(g90
g71
NtRp1900
(dp1901
g74
(dp1902
sg83
g1896
sg76
(lp1903
g69
(g70
g71
NtRp1904
(dp1905
g74
(dp1906
g82
I3
ssg83
g1900
sg76
(lp1907
g924
asbasbasbag69
(g85
g71
NtRp1908
(dp1909
g74
(dp1910
sg83
g1892
sg76
(lp1911
g69
(g90
g71
NtRp1912
(dp1913
g74
(dp1914
sg83
g1908
sg76
(lp1915
g69
(g70
g71
NtRp1916
(dp1917
g74
(dp1918
g82
I3
ssg83
g1912
sg76
(lp1919
g937
asbasbasbag69
(g85
g71
NtRp1920
(dp1921
g74
(dp1922
sg83
g1892
sg76
(lp1923
g69
(g90
g71
NtRp1924
(dp1925
g74
(dp1926
sg83
g1920
sg76
(lp1927
g69
(g70
g71
NtRp1928
(dp1929
g74
(dp1930
g82
I3
ssg83
g1924
sg76
(lp1931
g950
asbasbasbag69
(g85
g71
NtRp1932
(dp1933
g74
(dp1934
sg83
g1892
sg76
(lp1935
g69
(g90
g71
NtRp1936
(dp1937
g74
(dp1938
sg83
g1932
sg76
(lp1939
g69
(g70
g71
NtRp1940
(dp1941
g74
(dp1942
g82
I3
ssg83
g1936
sg76
(lp1943
g963
asbasbasbag69
(g85
g71
NtRp1944
(dp1945
g74
(dp1946
sg83
g1892
sg76
(lp1947
g69
(g90
g71
NtRp1948
(dp1949
g74
(dp1950
sg83
g1944
sg76
(lp1951
g69
(g70
g71
NtRp1952
(dp1953
g74
(dp1954
g82
I3
ssg83
g1948
sg76
(lp1955
g976
asbasbasbasbasbasbasbag69
(g85
g71
NtRp1956
(dp1957
g74
(dp1958
sg83
g1681
sg76
(lp1959
g69
(g90
g71
NtRp1960
(dp1961
g74
(dp1962
g94
g95
ssg83
g1956
sg76
(lp1963
g1268
asbag69
(g90
g71
NtRp1964
(dp1965
g74
(dp1966
g101
g102
ssg83
g1956
sg76
(lp1967
S':'
asbag69
(g90
g71
NtRp1968
(dp1969
g74
(dp1970
sg83
g1956
sg76
(lp1971
g69
(g70
g71
NtRp1972
(dp1973
g74
(dp1974
g82
I4
ssg83
g1968
sg76
(lp1975
g69
(g78
g71
NtRp1976
(dp1977
g74
(dp1978
g82
I3
ssg83
Nsg76
(lp1979
g69
(g85
g71
NtRp1980
(dp1981
g74
(dp1982
sg83
g1976
sg76
(lp1983
g69
(g90
g71
NtRp1984
(dp1985
g74
(dp1986
sg83
g1980
sg76
(lp1987
g69
(g70
g71
NtRp1988
(dp1989
g74
(dp1990
g82
I3
ssg83
g1984
sg76
(lp1991
S'2'
asbasbasbag69
(g85
g71
NtRp1992
(dp1993
g74
(dp1994
sg83
g1976
sg76
(lp1995
g69
(g90
g71
NtRp1996
(dp1997
g74
(dp1998
sg83
g1992
sg76
(lp1999
g69
(g70
g71
NtRp2000
(dp2001
g74
(dp2002
g82
I3
ssg83
g1996
sg76
(lp2003
S'4'
asbasbasbag69
(g85
g71
NtRp2004
(dp2005
g74
(dp2006
sg83
g1976
sg76
(lp2007
g69
(g90
g71
NtRp2008
(dp2009
g74
(dp2010
sg83
g2004
sg76
(lp2011
g69
(g70
g71
NtRp2012
(dp2013
g74
(dp2014
g82
I3
ssg83
g2008
sg76
(lp2015
S'1'
asbasbasbag69
(g85
g71
NtRp2016
(dp2017
g74
(dp2018
sg83
g1976
sg76
(lp2019
g69
(g90
g71
NtRp2020
(dp2021
g74
(dp2022
sg83
g2016
sg76
(lp2023
g69
(g70
g71
NtRp2024
(dp2025
g74
(dp2026
g82
I3
ssg83
g2020
sg76
(lp2027
g1333
asbasbasbag69
(g85
g71
NtRp2028
(dp2029
g74
(dp2030
sg83
g1976
sg76
(lp2031
g69
(g90
g71
NtRp2032
(dp2033
g74
(dp2034
sg83
g2028
sg76
(lp2035
g69
(g70
g71
NtRp2036
(dp2037
g74
(dp2038
g82
I3
ssg83
g2032
sg76
(lp2039
S'datetime.datetime(2013, 1, 10, 15, 12, 56)'
p2040
asbasbasbasbasbasbasbasbasbasbasbag69
(g85
g71
NtRp2041
(dp2042
g74
(dp2043
sg83
g79
sg76
(lp2044
g69
(g90
g71
NtRp2045
(dp2046
g74
(dp2047
g94
g95
ssg83
g2041
sg76
(lp2048
S'is_https'
p2049
asbag69
(g90
g71
NtRp2050
(dp2051
g74
(dp2052
g101
g102
ssg83
g2041
sg76
(lp2053
S':'
asbag69
(g90
g71
NtRp2054
(dp2055
g74
(dp2056
sg83
g2041
sg76
(lp2057
g69
(g70
g71
NtRp2058
(dp2059
g74
(dp2060
g82
I5
ssg83
g2054
sg76
(lp2061
g112
asbasbasbag69
(g85
g71
NtRp2062
(dp2063
g74
(dp2064
sg83
g79
sg76
(lp2065
g69
(g90
g71
NtRp2066
(dp2067
g74
(dp2068
g94
g95
ssg83
g2062
sg76
(lp2069
S'is_local'
p2070
asbag69
(g90
g71
NtRp2071
(dp2072
g74
(dp2073
g101
g102
ssg83
g2062
sg76
(lp2074
S':'
asbag69
(g90
g71
NtRp2075
(dp2076
g74
(dp2077
sg83
g2062
sg76
(lp2078
g69
(g70
g71
NtRp2079
(dp2080
g74
(dp2081
g82
I5
ssg83
g2075
sg76
(lp2082
g1455
asbasbasbag69
(g85
g71
NtRp2083
(dp2084
g74
(dp2085
sg83
g79
sg76
(lp2086
g69
(g90
g71
NtRp2087
(dp2088
g74
(dp2089
g94
g95
ssg83
g2083
sg76
(lp2090
S'is_restful'
p2091
asbag69
(g90
g71
NtRp2092
(dp2093
g74
(dp2094
g101
g102
ssg83
g2083
sg76
(lp2095
S':'
asbag69
(g90
g71
NtRp2096
(dp2097
g74
(dp2098
sg83
g2083
sg76
(lp2099
g69
(g70
g71
NtRp2100
(dp2101
g74
(dp2102
g82
I5
ssg83
g2096
sg76
(lp2103
g112
asbasbasbag69
(g85
g71
NtRp2104
(dp2105
g74
(dp2106
sg83
g79
sg76
(lp2107
g69
(g90
g71
NtRp2108
(dp2109
g74
(dp2110
g94
g95
ssg83
g2104
sg76
(lp2111
S'now'
p2112
asbag69
(g90
g71
NtRp2113
(dp2114
g74
(dp2115
g101
g102
ssg83
g2104
sg76
(lp2116
S':'
asbag69
(g90
g71
NtRp2117
(dp2118
g74
(dp2119
sg83
g2104
sg76
(lp2120
g69
(g70
g71
NtRp2121
(dp2122
g74
(dp2123
g82
I5
ssg83
g2117
sg76
(lp2124
S'datetime.datetime(2013, 1, 17, 20, 5, 16, 156736)'
p2125
asbasbasbag69
(g85
g71
NtRp2126
(dp2127
g74
(dp2128
sg83
g79
sg76
(lp2129
g69
(g90
g71
NtRp2130
(dp2131
g74
(dp2132
g94
g95
ssg83
g2126
sg76
(lp2133
S'post_vars'
p2134
asbag69
(g90
g71
NtRp2135
(dp2136
g74
(dp2137
g101
g102
ssg83
g2126
sg76
(lp2138
S':'
asbag69
(g90
g71
NtRp2139
(dp2140
g74
(dp2141
sg83
g2126
sg76
(lp2142
g69
(g70
g71
NtRp2143
(dp2144
g74
(dp2145
g82
I5
ssg83
g2139
sg76
(lp2146
g69
(g78
g71
NtRp2147
(dp2148
g74
(dp2149
g82
I4
ssg83
Nsg76
(lp2150
sbasbasbasbag69
(g85
g71
NtRp2151
(dp2152
g74
(dp2153
sg83
g79
sg76
(lp2154
g69
(g90
g71
NtRp2155
(dp2156
g74
(dp2157
g94
g95
ssg83
g2151
sg76
(lp2158
S'url'
p2159
asbag69
(g90
g71
NtRp2160
(dp2161
g74
(dp2162
g101
g102
ssg83
g2151
sg76
(lp2163
S':'
asbag69
(g90
g71
NtRp2164
(dp2165
g74
(dp2166
sg83
g2151
sg76
(lp2167
g69
(g70
g71
NtRp2168
(dp2169
g74
(dp2170
g82
I5
ssg83
g2164
sg76
(lp2171
g998
asbasbasbag69
(g85
g71
NtRp2172
(dp2173
g74
(dp2174
sg83
g79
sg76
(lp2175
g69
(g90
g71
NtRp2176
(dp2177
g74
(dp2178
g94
g95
ssg83
g2172
sg76
(lp2179
S'utcnow'
p2180
asbag69
(g90
g71
NtRp2181
(dp2182
g74
(dp2183
g101
g102
ssg83
g2172
sg76
(lp2184
S':'
asbag69
(g90
g71
NtRp2185
(dp2186
g74
(dp2187
sg83
g2172
sg76
(lp2188
g69
(g70
g71
NtRp2189
(dp2190
g74
(dp2191
g82
I5
ssg83
g2185
sg76
(lp2192
S'datetime.datetime(2013, 1, 17, 22, 5, 16, 156775)'
p2193
asbasbasbag69
(g85
g71
NtRp2194
(dp2195
g74
(dp2196
sg83
g79
sg76
(lp2197
g69
(g90
g71
NtRp2198
(dp2199
g74
(dp2200
g94
g95
ssg83
g2194
sg76
(lp2201
S'uuid'
p2202
asbag69
(g90
g71
NtRp2203
(dp2204
g74
(dp2205
g101
g102
ssg83
g2194
sg76
(lp2206
S':'
asbag69
(g90
g71
NtRp2207
(dp2208
g74
(dp2209
sg83
g2194
sg76
(lp2210
g69
(g70
g71
NtRp2211
(dp2212
g74
(dp2213
g82
I5
ssg83
g2207
sg76
(lp2214
S'blog/127.0.0.1.2013-01-17.20-05-16.a93012fc-9eb0-4303-842a-43f6cb478e6a'
p2215
asbasbasbag69
(g85
g71
NtRp2216
(dp2217
g74
(dp2218
sg83
g79
sg76
(lp2219
g69
(g90
g71
NtRp2220
(dp2221
g74
(dp2222
g94
g95
ssg83
g2216
sg76
(lp2223
S'vars'
p2224
asbag69
(g90
g71
NtRp2225
(dp2226
g74
(dp2227
g101
g102
ssg83
g2216
sg76
(lp2228
S':'
asbag69
(g90
g71
NtRp2229
(dp2230
g74
(dp2231
sg83
g2216
sg76
(lp2232
g69
(g70
g71
NtRp2233
(dp2234
g74
(dp2235
g82
I5
ssg83
g2229
sg76
(lp2236
g69
(g78
g71
NtRp2237
(dp2238
g74
(dp2239
g82
I4
ssg83
Nsg76
(lp2240
g69
(g85
g71
NtRp2241
(dp2242
g74
(dp2243
sg83
g2237
sg76
(lp2244
g69
(g90
g71
NtRp2245
(dp2246
g74
(dp2247
g94
g95
ssg83
g2241
sg76
(lp2248
g1647
asbag69
(g90
g71
NtRp2249
(dp2250
g74
(dp2251
g101
g102
ssg83
g2241
sg76
(lp2252
S':'
asbag69
(g90
g71
NtRp2253
(dp2254
g74
(dp2255
sg83
g2241
sg76
(lp2256
g69
(g70
g71
NtRp2257
(dp2258
g74
(dp2259
g82
I4
ssg83
g2253
sg76
(lp2260
S'1'
asbasbasbasbasbasbasbag69
(g85
g71
NtRp2261
(dp2262
g74
(dp2263
sg83
g79
sg76
(lp2264
g69
(g90
g71
NtRp2265
(dp2266
g74
(dp2267
g94
g95
ssg83
g2261
sg76
(lp2268
S'wsgi'
p2269
asbag69
(g90
g71
NtRp2270
(dp2271
g74
(dp2272
g101
g102
ssg83
g2261
sg76
(lp2273
S':'
asbag69
(g90
g71
NtRp2274
(dp2275
g74
(dp2276
sg83
g2261
sg76
(lp2277
g69
(g70
g71
NtRp2278
(dp2279
g74
(dp2280
g82
I5
ssg83
g2274
sg76
(lp2281
g69
(g78
g71
NtRp2282
(dp2283
g74
(dp2284
g82
I4
ssg83
Nsg76
(lp2285
g69
(g85
g71
NtRp2286
(dp2287
g74
(dp2288
sg83
g2282
sg76
(lp2289
g69
(g90
g71
NtRp2290
(dp2291
g74
(dp2292
g94
g95
ssg83
g2286
sg76
(lp2293
S'environ'
p2294
asbag69
(g90
g71
NtRp2295
(dp2296
g74
(dp2297
g101
g102
ssg83
g2286
sg76
(lp2298
S':'
asbag69
(g90
g71
NtRp2299
(dp2300
g74
(dp2301
sg83
g2286
sg76
(lp2302
g69
(g70
g71
NtRp2303
(dp2304
g74
(dp2305
g82
I4
ssg83
g2299
sg76
(lp2306
g69
(g78
g71
NtRp2307
(dp2308
g74
(dp2309
g82
I3
ssg83
Nsg76
(lp2310
g69
(g85
g71
NtRp2311
(dp2312
g74
(dp2313
sg83
g2307
sg76
(lp2314
g69
(g90
g71
NtRp2315
(dp2316
g74
(dp2317
g94
g95
ssg83
g2311
sg76
(lp2318
S'HTTP_ACCEPT'
p2319
asbag69
(g90
g71
NtRp2320
(dp2321
g74
(dp2322
g101
g102
ssg83
g2311
sg76
(lp2323
S':'
asbag69
(g90
g71
NtRp2324
(dp2325
g74
(dp2326
sg83
g2311
sg76
(lp2327
g69
(g70
g71
NtRp2328
(dp2329
g74
(dp2330
g82
I3
ssg83
g2324
sg76
(lp2331
g668
asbasbasbag69
(g85
g71
NtRp2332
(dp2333
g74
(dp2334
sg83
g2307
sg76
(lp2335
g69
(g90
g71
NtRp2336
(dp2337
g74
(dp2338
g94
g95
ssg83
g2332
sg76
(lp2339
S'HTTP_ACCEPT_CHARSET'
p2340
asbag69
(g90
g71
NtRp2341
(dp2342
g74
(dp2343
g101
g102
ssg83
g2332
sg76
(lp2344
S':'
asbag69
(g90
g71
NtRp2345
(dp2346
g74
(dp2347
sg83
g2332
sg76
(lp2348
g69
(g70
g71
NtRp2349
(dp2350
g74
(dp2351
g82
I3
ssg83
g2345
sg76
(lp2352
g690
asbasbasbag69
(g85
g71
NtRp2353
(dp2354
g74
(dp2355
sg83
g2307
sg76
(lp2356
g69
(g90
g71
NtRp2357
(dp2358
g74
(dp2359
g94
g95
ssg83
g2353
sg76
(lp2360
S'HTTP_ACCEPT_ENCODING'
p2361
asbag69
(g90
g71
NtRp2362
(dp2363
g74
(dp2364
g101
g102
ssg83
g2353
sg76
(lp2365
S':'
asbag69
(g90
g71
NtRp2366
(dp2367
g74
(dp2368
sg83
g2353
sg76
(lp2369
g69
(g70
g71
NtRp2370
(dp2371
g74
(dp2372
g82
I3
ssg83
g2366
sg76
(lp2373
g712
asbasbasbag69
(g85
g71
NtRp2374
(dp2375
g74
(dp2376
sg83
g2307
sg76
(lp2377
g69
(g90
g71
NtRp2378
(dp2379
g74
(dp2380
g94
g95
ssg83
g2374
sg76
(lp2381
S'HTTP_ACCEPT_LANGUAGE'
p2382
asbag69
(g90
g71
NtRp2383
(dp2384
g74
(dp2385
g101
g102
ssg83
g2374
sg76
(lp2386
S':'
asbag69
(g90
g71
NtRp2387
(dp2388
g74
(dp2389
sg83
g2374
sg76
(lp2390
g69
(g70
g71
NtRp2391
(dp2392
g74
(dp2393
g82
I3
ssg83
g2387
sg76
(lp2394
g734
asbasbasbag69
(g85
g71
NtRp2395
(dp2396
g74
(dp2397
sg83
g2307
sg76
(lp2398
g69
(g90
g71
NtRp2399
(dp2400
g74
(dp2401
g94
g95
ssg83
g2395
sg76
(lp2402
S'HTTP_CACHE_CONTROL'
p2403
asbag69
(g90
g71
NtRp2404
(dp2405
g74
(dp2406
g101
g102
ssg83
g2395
sg76
(lp2407
S':'
asbag69
(g90
g71
NtRp2408
(dp2409
g74
(dp2410
sg83
g2395
sg76
(lp2411
g69
(g70
g71
NtRp2412
(dp2413
g74
(dp2414
g82
I3
ssg83
g2408
sg76
(lp2415
g756
asbasbasbag69
(g85
g71
NtRp2416
(dp2417
g74
(dp2418
sg83
g2307
sg76
(lp2419
g69
(g90
g71
NtRp2420
(dp2421
g74
(dp2422
g94
g95
ssg83
g2416
sg76
(lp2423
S'HTTP_CONNECTION'
p2424
asbag69
(g90
g71
NtRp2425
(dp2426
g74
(dp2427
g101
g102
ssg83
g2416
sg76
(lp2428
S':'
asbag69
(g90
g71
NtRp2429
(dp2430
g74
(dp2431
sg83
g2416
sg76
(lp2432
g69
(g70
g71
NtRp2433
(dp2434
g74
(dp2435
g82
I3
ssg83
g2429
sg76
(lp2436
g778
asbasbasbag69
(g85
g71
NtRp2437
(dp2438
g74
(dp2439
sg83
g2307
sg76
(lp2440
g69
(g90
g71
NtRp2441
(dp2442
g74
(dp2443
g94
g95
ssg83
g2437
sg76
(lp2444
S'HTTP_COOKIE'
p2445
asbag69
(g90
g71
NtRp2446
(dp2447
g74
(dp2448
g101
g102
ssg83
g2437
sg76
(lp2449
S':'
asbag69
(g90
g71
NtRp2450
(dp2451
g74
(dp2452
sg83
g2437
sg76
(lp2453
g69
(g70
g71
NtRp2454
(dp2455
g74
(dp2456
g82
I3
ssg83
g2450
sg76
(lp2457
g800
asbasbasbag69
(g85
g71
NtRp2458
(dp2459
g74
(dp2460
sg83
g2307
sg76
(lp2461
g69
(g90
g71
NtRp2462
(dp2463
g74
(dp2464
g94
g95
ssg83
g2458
sg76
(lp2465
S'HTTP_HOST'
p2466
asbag69
(g90
g71
NtRp2467
(dp2468
g74
(dp2469
g101
g102
ssg83
g2458
sg76
(lp2470
S':'
asbag69
(g90
g71
NtRp2471
(dp2472
g74
(dp2473
sg83
g2458
sg76
(lp2474
g69
(g70
g71
NtRp2475
(dp2476
g74
(dp2477
g82
I3
ssg83
g2471
sg76
(lp2478
g822
asbasbasbag69
(g85
g71
NtRp2479
(dp2480
g74
(dp2481
sg83
g2307
sg76
(lp2482
g69
(g90
g71
NtRp2483
(dp2484
g74
(dp2485
g94
g95
ssg83
g2479
sg76
(lp2486
S'HTTP_USER_AGENT'
p2487
asbag69
(g90
g71
NtRp2488
(dp2489
g74
(dp2490
g101
g102
ssg83
g2479
sg76
(lp2491
S':'
asbag69
(g90
g71
NtRp2492
(dp2493
g74
(dp2494
sg83
g2479
sg76
(lp2495
g69
(g70
g71
NtRp2496
(dp2497
g74
(dp2498
g82
I3
ssg83
g2492
sg76
(lp2499
g844
asbasbasbag69
(g85
g71
NtRp2500
(dp2501
g74
(dp2502
sg83
g2307
sg76
(lp2503
g69
(g90
g71
NtRp2504
(dp2505
g74
(dp2506
g94
g95
ssg83
g2500
sg76
(lp2507
S'PATH_INFO'
p2508
asbag69
(g90
g71
NtRp2509
(dp2510
g74
(dp2511
g101
g102
ssg83
g2500
sg76
(lp2512
S':'
asbag69
(g90
g71
NtRp2513
(dp2514
g74
(dp2515
sg83
g2500
sg76
(lp2516
g69
(g70
g71
NtRp2517
(dp2518
g74
(dp2519
g82
I3
ssg83
g2513
sg76
(lp2520
g998
asbasbasbag69
(g85
g71
NtRp2521
(dp2522
g74
(dp2523
sg83
g2307
sg76
(lp2524
g69
(g90
g71
NtRp2525
(dp2526
g74
(dp2527
g94
g95
ssg83
g2521
sg76
(lp2528
S'QUERY_STRING'
p2529
asbag69
(g90
g71
NtRp2530
(dp2531
g74
(dp2532
g101
g102
ssg83
g2521
sg76
(lp2533
S':'
asbag69
(g90
g71
NtRp2534
(dp2535
g74
(dp2536
sg83
g2521
sg76
(lp2537
g69
(g70
g71
NtRp2538
(dp2539
g74
(dp2540
g82
I3
ssg83
g2534
sg76
(lp2541
g1020
asbasbasbag69
(g85
g71
NtRp2542
(dp2543
g74
(dp2544
sg83
g2307
sg76
(lp2545
g69
(g90
g71
NtRp2546
(dp2547
g74
(dp2548
g94
g95
ssg83
g2542
sg76
(lp2549
S'REMOTE_ADDR'
p2550
asbag69
(g90
g71
NtRp2551
(dp2552
g74
(dp2553
g101
g102
ssg83
g2542
sg76
(lp2554
S':'
asbag69
(g90
g71
NtRp2555
(dp2556
g74
(dp2557
sg83
g2542
sg76
(lp2558
g69
(g70
g71
NtRp2559
(dp2560
g74
(dp2561
g82
I3
ssg83
g2555
sg76
(lp2562
g224
asbasbasbag69
(g85
g71
NtRp2563
(dp2564
g74
(dp2565
sg83
g2307
sg76
(lp2566
g69
(g90
g71
NtRp2567
(dp2568
g74
(dp2569
g94
g95
ssg83
g2563
sg76
(lp2570
S'REMOTE_PORT'
p2571
asbag69
(g90
g71
NtRp2572
(dp2573
g74
(dp2574
g101
g102
ssg83
g2563
sg76
(lp2575
S':'
asbag69
(g90
g71
NtRp2576
(dp2577
g74
(dp2578
sg83
g2563
sg76
(lp2579
g69
(g70
g71
NtRp2580
(dp2581
g74
(dp2582
g82
I3
ssg83
g2576
sg76
(lp2583
g1063
asbasbasbag69
(g85
g71
NtRp2584
(dp2585
g74
(dp2586
sg83
g2307
sg76
(lp2587
g69
(g90
g71
NtRp2588
(dp2589
g74
(dp2590
g94
g95
ssg83
g2584
sg76
(lp2591
S'REQUEST_METHOD'
p2592
asbag69
(g90
g71
NtRp2593
(dp2594
g74
(dp2595
g101
g102
ssg83
g2584
sg76
(lp2596
S':'
asbag69
(g90
g71
NtRp2597
(dp2598
g74
(dp2599
sg83
g2584
sg76
(lp2600
g69
(g70
g71
NtRp2601
(dp2602
g74
(dp2603
g82
I3
ssg83
g2597
sg76
(lp2604
g1085
asbasbasbag69
(g85
g71
NtRp2605
(dp2606
g74
(dp2607
sg83
g2307
sg76
(lp2608
g69
(g90
g71
NtRp2609
(dp2610
g74
(dp2611
g94
g95
ssg83
g2605
sg76
(lp2612
S'REQUEST_URI'
p2613
asbag69
(g90
g71
NtRp2614
(dp2615
g74
(dp2616
g101
g102
ssg83
g2605
sg76
(lp2617
S':'
asbag69
(g90
g71
NtRp2618
(dp2619
g74
(dp2620
sg83
g2605
sg76
(lp2621
g69
(g70
g71
NtRp2622
(dp2623
g74
(dp2624
g82
I3
ssg83
g2618
sg76
(lp2625
g1107
asbasbasbag69
(g85
g71
NtRp2626
(dp2627
g74
(dp2628
sg83
g2307
sg76
(lp2629
g69
(g90
g71
NtRp2630
(dp2631
g74
(dp2632
g94
g95
ssg83
g2626
sg76
(lp2633
S'SCRIPT_NAME'
p2634
asbag69
(g90
g71
NtRp2635
(dp2636
g74
(dp2637
g101
g102
ssg83
g2626
sg76
(lp2638
S':'
asbag69
(g90
g71
NtRp2639
(dp2640
g74
(dp2641
sg83
g2626
sg76
(lp2642
g69
(g70
g71
NtRp2643
(dp2644
g74
(dp2645
g82
I3
ssg83
g2639
sg76
(lp2646
S''
asbasbasbag69
(g85
g71
NtRp2647
(dp2648
g74
(dp2649
sg83
g2307
sg76
(lp2650
g69
(g90
g71
NtRp2651
(dp2652
g74
(dp2653
g94
g95
ssg83
g2647
sg76
(lp2654
S'SERVER_NAME'
p2655
asbag69
(g90
g71
NtRp2656
(dp2657
g74
(dp2658
g101
g102
ssg83
g2647
sg76
(lp2659
S':'
asbag69
(g90
g71
NtRp2660
(dp2661
g74
(dp2662
sg83
g2647
sg76
(lp2663
g69
(g70
g71
NtRp2664
(dp2665
g74
(dp2666
g82
I3
ssg83
g2660
sg76
(lp2667
g1150
asbasbasbag69
(g85
g71
NtRp2668
(dp2669
g74
(dp2670
sg83
g2307
sg76
(lp2671
g69
(g90
g71
NtRp2672
(dp2673
g74
(dp2674
g94
g95
ssg83
g2668
sg76
(lp2675
S'SERVER_PORT'
p2676
asbag69
(g90
g71
NtRp2677
(dp2678
g74
(dp2679
g101
g102
ssg83
g2668
sg76
(lp2680
S':'
asbag69
(g90
g71
NtRp2681
(dp2682
g74
(dp2683
sg83
g2668
sg76
(lp2684
g69
(g70
g71
NtRp2685
(dp2686
g74
(dp2687
g82
I3
ssg83
g2681
sg76
(lp2688
g1172
asbasbasbag69
(g85
g71
NtRp2689
(dp2690
g74
(dp2691
sg83
g2307
sg76
(lp2692
g69
(g90
g71
NtRp2693
(dp2694
g74
(dp2695
g94
g95
ssg83
g2689
sg76
(lp2696
S'SERVER_PROTOCOL'
p2697
asbag69
(g90
g71
NtRp2698
(dp2699
g74
(dp2700
g101
g102
ssg83
g2689
sg76
(lp2701
S':'
asbag69
(g90
g71
NtRp2702
(dp2703
g74
(dp2704
sg83
g2689
sg76
(lp2705
g69
(g70
g71
NtRp2706
(dp2707
g74
(dp2708
g82
I3
ssg83
g2702
sg76
(lp2709
g1194
asbasbasbag69
(g85
g71
NtRp2710
(dp2711
g74
(dp2712
sg83
g2307
sg76
(lp2713
g69
(g90
g71
NtRp2714
(dp2715
g74
(dp2716
g94
g95
ssg83
g2710
sg76
(lp2717
S'SERVER_SOFTWARE'
p2718
asbag69
(g90
g71
NtRp2719
(dp2720
g74
(dp2721
g101
g102
ssg83
g2710
sg76
(lp2722
S':'
asbag69
(g90
g71
NtRp2723
(dp2724
g74
(dp2725
sg83
g2710
sg76
(lp2726
g69
(g70
g71
NtRp2727
(dp2728
g74
(dp2729
g82
I3
ssg83
g2723
sg76
(lp2730
g1216
asbasbasbag69
(g85
g71
NtRp2731
(dp2732
g74
(dp2733
sg83
g2307
sg76
(lp2734
g69
(g90
g71
NtRp2735
(dp2736
g74
(dp2737
g94
g95
ssg83
g2731
sg76
(lp2738
S'WEB2PY_ORIGINAL_URI'
p2739
asbag69
(g90
g71
NtRp2740
(dp2741
g74
(dp2742
g101
g102
ssg83
g2731
sg76
(lp2743
S':'
asbag69
(g90
g71
NtRp2744
(dp2745
g74
(dp2746
sg83
g2731
sg76
(lp2747
g69
(g70
g71
NtRp2748
(dp2749
g74
(dp2750
g82
I3
ssg83
g2744
sg76
(lp2751
g1238
asbasbasbag69
(g85
g71
NtRp2752
(dp2753
g74
(dp2754
sg83
g2307
sg76
(lp2755
g69
(g90
g71
NtRp2756
(dp2757
g74
(dp2758
g94
g95
ssg83
g2752
sg76
(lp2759
S'wsgi.errors'
p2760
asbag69
(g90
g71
NtRp2761
(dp2762
g74
(dp2763
g101
g102
ssg83
g2752
sg76
(lp2764
S':'
asbag69
(g90
g71
NtRp2765
(dp2766
g74
(dp2767
sg83
g2752
sg76
(lp2768
g69
(g70
g71
NtRp2769
(dp2770
g74
(dp2771
g82
I3
ssg83
g2765
sg76
(lp2772
S"<open file '<stderr>', mode 'w' at 0x7faa84f02270>"
p2773
asbasbasbag69
(g85
g71
NtRp2774
(dp2775
g74
(dp2776
sg83
g2307
sg76
(lp2777
g69
(g90
g71
NtRp2778
(dp2779
g74
(dp2780
g94
g95
ssg83
g2774
sg76
(lp2781
S'wsgi.file_wrapper'
p2782
asbag69
(g90
g71
NtRp2783
(dp2784
g74
(dp2785
g101
g102
ssg83
g2774
sg76
(lp2786
S':'
asbag69
(g90
g71
NtRp2787
(dp2788
g74
(dp2789
sg83
g2774
sg76
(lp2790
g69
(g70
g71
NtRp2791
(dp2792
g74
(dp2793
g82
I3
ssg83
g2787
sg76
(lp2794
S'<class wsgiref.util.FileWrapper at 0x35cd7a0>'
p2795
asbasbasbag69
(g85
g71
NtRp2796
(dp2797
g74
(dp2798
sg83
g2307
sg76
(lp2799
g69
(g90
g71
NtRp2800
(dp2801
g74
(dp2802
g94
g95
ssg83
g2796
sg76
(lp2803
S'wsgi.input'
p2804
asbag69
(g90
g71
NtRp2805
(dp2806
g74
(dp2807
g101
g102
ssg83
g2796
sg76
(lp2808
S':'
asbag69
(g90
g71
NtRp2809
(dp2810
g74
(dp2811
sg83
g2796
sg76
(lp2812
g69
(g70
g71
NtRp2813
(dp2814
g74
(dp2815
g82
I3
ssg83
g2809
sg76
(lp2816
S'<cStringIO.StringO object at 0x34ae538>'
p2817
asbasbasbag69
(g85
g71
NtRp2818
(dp2819
g74
(dp2820
sg83
g2307
sg76
(lp2821
g69
(g90
g71
NtRp2822
(dp2823
g74
(dp2824
g94
g95
ssg83
g2818
sg76
(lp2825
S'wsgi.multiprocess'
p2826
asbag69
(g90
g71
NtRp2827
(dp2828
g74
(dp2829
g101
g102
ssg83
g2818
sg76
(lp2830
S':'
asbag69
(g90
g71
NtRp2831
(dp2832
g74
(dp2833
sg83
g2818
sg76
(lp2834
g69
(g70
g71
NtRp2835
(dp2836
g74
(dp2837
g82
I3
ssg83
g2831
sg76
(lp2838
g112
asbasbasbag69
(g85
g71
NtRp2839
(dp2840
g74
(dp2841
sg83
g2307
sg76
(lp2842
g69
(g90
g71
NtRp2843
(dp2844
g74
(dp2845
g94
g95
ssg83
g2839
sg76
(lp2846
S'wsgi.multithread'
p2847
asbag69
(g90
g71
NtRp2848
(dp2849
g74
(dp2850
g101
g102
ssg83
g2839
sg76
(lp2851
S':'
asbag69
(g90
g71
NtRp2852
(dp2853
g74
(dp2854
sg83
g2839
sg76
(lp2855
g69
(g70
g71
NtRp2856
(dp2857
g74
(dp2858
g82
I3
ssg83
g2852
sg76
(lp2859
g1455
asbasbasbag69
(g85
g71
NtRp2860
(dp2861
g74
(dp2862
sg83
g2307
sg76
(lp2863
g69
(g90
g71
NtRp2864
(dp2865
g74
(dp2866
g94
g95
ssg83
g2860
sg76
(lp2867
S'wsgi.run_once'
p2868
asbag69
(g90
g71
NtRp2869
(dp2870
g74
(dp2871
g101
g102
ssg83
g2860
sg76
(lp2872
S':'
asbag69
(g90
g71
NtRp2873
(dp2874
g74
(dp2875
sg83
g2860
sg76
(lp2876
g69
(g70
g71
NtRp2877
(dp2878
g74
(dp2879
g82
I3
ssg83
g2873
sg76
(lp2880
g112
asbasbasbag69
(g85
g71
NtRp2881
(dp2882
g74
(dp2883
sg83
g2307
sg76
(lp2884
g69
(g90
g71
NtRp2885
(dp2886
g74
(dp2887
g94
g95
ssg83
g2881
sg76
(lp2888
S'wsgi.url_scheme'
p2889
asbag69
(g90
g71
NtRp2890
(dp2891
g74
(dp2892
g101
g102
ssg83
g2881
sg76
(lp2893
S':'
asbag69
(g90
g71
NtRp2894
(dp2895
g74
(dp2896
sg83
g2881
sg76
(lp2897
g69
(g70
g71
NtRp2898
(dp2899
g74
(dp2900
g82
I3
ssg83
g2894
sg76
(lp2901
g1498
asbasbasbag69
(g85
g71
NtRp2902
(dp2903
g74
(dp2904
sg83
g2307
sg76
(lp2905
g69
(g90
g71
NtRp2906
(dp2907
g74
(dp2908
g94
g95
ssg83
g2902
sg76
(lp2909
S'wsgi.version'
p2910
asbag69
(g90
g71
NtRp2911
(dp2912
g74
(dp2913
g101
g102
ssg83
g2902
sg76
(lp2914
S':'
asbag69
(g90
g71
NtRp2915
(dp2916
g74
(dp2917
sg83
g2902
sg76
(lp2918
g69
(g70
g71
NtRp2919
(dp2920
g74
(dp2921
g82
I3
ssg83
g2915
sg76
(lp2922
S'1'
asbasbasbasbasbasbasbasbasbasbasbasbasbsS'frames'
p2923
(lp2924
(dp2925
S'file'
p2926
S'/home/rochacbruno/Dropbox/stoodos/w2p/web2py/gluon/restricted.py'
p2927
sS'dump'
p2928
(dp2929
S'code'
p2930
S'\'def show():\\n    return "post"\\n\\ndef edit():\\n    r...turn "add"\\n\\nresponse._vars=response._caller(add)\\n\''
p2931
sS'layer'
p2932
S"'/home/rochacbruno/Dropbox/stoodos/w2p/web2py/applications/blog/controllers/post.py'"
p2933
sS'global compile2'
p2934
S'<function compile2>'
p2935
sS'ccode'
p2936
S'undefined'
p2937
ssS'lnum'
p2938
I211
sS'lines'
p2939
(dp2940
I206
S"    environment['__name__'] = '__restricted__'"
p2941
sI207
S'    try:'
p2942
sI208
S'        if isinstance(code, types.CodeType):'
p2943
sI209
S'            ccode = code'
p2944
sI210
S'        else:'
p2945
sI211
S'            ccode = compile2(code, layer)'
p2946
sI212
S'        exec ccode in environment'
p2947
sI213
S'    except HTTP:'
p2948
sI214
S'        raise'
p2949
sI215
S'    except RestrictedError:'
p2950
ssS'call'
p2951
S'(code=\'def show():\\n    return "post"\\n\\ndef edit():\\n    r...turn "add"\\n\\nresponse._vars=response._caller(add)\\n\', environment={\'A\': <class \'gluon.html.A\'>, \'B\': <class \'gluon.html.B\'>, \'BEAUTIFY\': <class \'gluon.html.BEAUTIFY\'>, \'BODY\': <class \'gluon.html.BODY\'>, \'BR\': <class \'gluon.html.BR\'>, \'BUTTON\': <class \'gluon.html.BUTTON\'>, \'Blog\': <Table blog (id,title,description)>, \'CAT\': <class \'gluon.html.CAT\'>, \'CENTER\': <class \'gluon.html.CENTER\'>, \'CLEANUP\': <class \'gluon.validators.CLEANUP\'>, ...}, layer=\'/home/rochacbruno/Dropbox/stoodos/w2p/web2py/applications/blog/controllers/post.py\')'
p2952
sS'func'
p2953
S'restricted'
p2954
sa(dp2955
g2926
S'/home/rochacbruno/Dropbox/stoodos/w2p/web2py/gluon/restricted.py'
p2956
sg2928
(dp2957
S'builtincompile'
p2958
S'<built-in function compile>'
p2959
sS'code'
p2960
S'\'def show():\\n    return "post"\\n\\ndef edit():\\n    r...turn "add"\\n\\nresponse._vars=response._caller(add)\\n\''
p2961
sS'code.rstrip'
p2962
S'<built-in method rstrip of str object>'
p2963
sS').replace'
p2964
g2937
sS'layer'
p2965
S"'/home/rochacbruno/Dropbox/stoodos/w2p/web2py/applications/blog/controllers/post.py'"
p2966
ssg2938
I194
sg2939
(dp2967
I192
S"    The +'\\n' is necessary else compile fails when code ends in a comment."
p2968
sI193
S'    """'
p2969
sI194
S"    return compile(code.rstrip().replace('\\r\\n', '\\n') + '\\n', layer, 'exec')"
p2970
sI195
S''
sI196
S''
sI197
S"def restricted(code, environment=None, layer='Unknown'):"
p2971
sI198
S'    """'
p2972
sI189
S''
sI190
S'def compile2(code, layer):'
p2973
sI191
S'    """'
p2974
ssg2951
S'(code=\'def show():\\n    return "post"\\n\\ndef edit():\\n    r...turn "add"\\n\\nresponse._vars=response._caller(add)\\n\', layer=\'/home/rochacbruno/Dropbox/stoodos/w2p/web2py/applications/blog/controllers/post.py\')'
p2975
sg2953
S'compile2'
p2976
sasS'pyver'
p2977
S'Python 2.7.3rc2: /usr/bin/python'
p2978
sS'session'
p2979
g69
(g70
g71
NtRp2980
(dp2981
g74
(dp2982
sg76
(lp2983
g69
(g78
g71
NtRp2984
(dp2985
g74
(dp2986
g82
I5
ssg83
Nsg76
(lp2987
sbasbsS'etype'
p2988
S"<type 'exceptions.IndentationError'>"
p2989
sS'date'
p2990
S'Thu Jan 17 20:05:16 2013'
p2991
sS'response'
p2992
g69
(g70
g71
NtRp2993
(dp2994
g74
(dp2995
sg76
(lp2996
g69
(g78
g71
NtRp2997
(dp2998
g74
(dp2999
g82
I5
ssg83
Nsg76
(lp3000
g69
(g85
g71
NtRp3001
(dp3002
g74
(dp3003
sg83
g2997
sg76
(lp3004
g69
(g90
g71
NtRp3005
(dp3006
g74
(dp3007
g94
g95
ssg83
g3001
sg76
(lp3008
g167
asbag69
(g90
g71
NtRp3009
(dp3010
g74
(dp3011
g101
g102
ssg83
g3001
sg76
(lp3012
S':'
asbag69
(g90
g71
NtRp3013
(dp3014
g74
(dp3015
sg83
g3001
sg76
(lp3016
g69
(g70
g71
NtRp3017
(dp3018
g74
(dp3019
g82
I5
ssg83
g3013
sg76
(lp3020
S'<cStringIO.StringO object at 0x34ae8f0>'
p3021
asbasbasbag69
(g85
g71
NtRp3022
(dp3023
g74
(dp3024
sg83
g2997
sg76
(lp3025
g69
(g90
g71
NtRp3026
(dp3027
g74
(dp3028
g94
g95
ssg83
g3022
sg76
(lp3029
g255
asbag69
(g90
g71
NtRp3030
(dp3031
g74
(dp3032
g101
g102
ssg83
g3022
sg76
(lp3033
S':'
asbag69
(g90
g71
NtRp3034
(dp3035
g74
(dp3036
sg83
g3022
sg76
(lp3037
g69
(g70
g71
NtRp3038
(dp3039
g74
(dp3040
g82
I5
ssg83
g3034
sg76
(lp3041
g69
(g78
g71
NtRp3042
(dp3043
g74
(dp3044
g82
I4
ssg83
Nsg76
(lp3045
g69
(g85
g71
NtRp3046
(dp3047
g74
(dp3048
sg83
g3042
sg76
(lp3049
g69
(g90
g71
NtRp3050
(dp3051
g74
(dp3052
g94
g95
ssg83
g3046
sg76
(lp3053
S'session_id_blog'
p3054
asbag69
(g90
g71
NtRp3055
(dp3056
g74
(dp3057
g101
g102
ssg83
g3046
sg76
(lp3058
S':'
asbag69
(g90
g71
NtRp3059
(dp3060
g74
(dp3061
sg83
g3046
sg76
(lp3062
g69
(g70
g71
NtRp3063
(dp3064
g74
(dp3065
g82
I4
ssg83
g3059
sg76
(lp3066
g293
ag69
(g78
g71
NtRp3067
(dp3068
g74
(dp3069
g82
I3
ssg83
Nsg76
(lp3070
g69
(g85
g71
NtRp3071
(dp3072
g74
(dp3073
sg83
g3067
sg76
(lp3074
g69
(g90
g71
NtRp3075
(dp3076
g74
(dp3077
g94
g95
ssg83
g3071
sg76
(lp3078
g306
asbag69
(g90
g71
NtRp3079
(dp3080
g74
(dp3081
g101
g102
ssg83
g3071
sg76
(lp3082
S':'
asbag69
(g90
g71
NtRp3083
(dp3084
g74
(dp3085
sg83
g3071
sg76
(lp3086
g69
(g70
g71
NtRp3087
(dp3088
g74
(dp3089
g82
I3
ssg83
g3083
sg76
(lp3090
S''
asbasbasbag69
(g85
g71
NtRp3091
(dp3092
g74
(dp3093
sg83
g3067
sg76
(lp3094
g69
(g90
g71
NtRp3095
(dp3096
g74
(dp3097
g94
g95
ssg83
g3091
sg76
(lp3098
g327
asbag69
(g90
g71
NtRp3099
(dp3100
g74
(dp3101
g101
g102
ssg83
g3091
sg76
(lp3102
S':'
asbag69
(g90
g71
NtRp3103
(dp3104
g74
(dp3105
sg83
g3091
sg76
(lp3106
g69
(g70
g71
NtRp3107
(dp3108
g74
(dp3109
g82
I3
ssg83
g3103
sg76
(lp3110
S''
asbasbasbag69
(g85
g71
NtRp3111
(dp3112
g74
(dp3113
sg83
g3067
sg76
(lp3114
g69
(g90
g71
NtRp3115
(dp3116
g74
(dp3117
g94
g95
ssg83
g3111
sg76
(lp3118
g348
asbag69
(g90
g71
NtRp3119
(dp3120
g74
(dp3121
g101
g102
ssg83
g3111
sg76
(lp3122
S':'
asbag69
(g90
g71
NtRp3123
(dp3124
g74
(dp3125
sg83
g3111
sg76
(lp3126
g69
(g70
g71
NtRp3127
(dp3128
g74
(dp3129
g82
I3
ssg83
g3123
sg76
(lp3130
S''
asbasbasbag69
(g85
g71
NtRp3131
(dp3132
g74
(dp3133
sg83
g3067
sg76
(lp3134
g69
(g90
g71
NtRp3135
(dp3136
g74
(dp3137
g94
g95
ssg83
g3131
sg76
(lp3138
g369
asbag69
(g90
g71
NtRp3139
(dp3140
g74
(dp3141
g101
g102
ssg83
g3131
sg76
(lp3142
S':'
asbag69
(g90
g71
NtRp3143
(dp3144
g74
(dp3145
sg83
g3131
sg76
(lp3146
g69
(g70
g71
NtRp3147
(dp3148
g74
(dp3149
g82
I3
ssg83
g3143
sg76
(lp3150
S''
asbasbasbag69
(g85
g71
NtRp3151
(dp3152
g74
(dp3153
sg83
g3067
sg76
(lp3154
g69
(g90
g71
NtRp3155
(dp3156
g74
(dp3157
g94
g95
ssg83
g3151
sg76
(lp3158
g390
asbag69
(g90
g71
NtRp3159
(dp3160
g74
(dp3161
g101
g102
ssg83
g3151
sg76
(lp3162
S':'
asbag69
(g90
g71
NtRp3163
(dp3164
g74
(dp3165
sg83
g3151
sg76
(lp3166
g69
(g70
g71
NtRp3167
(dp3168
g74
(dp3169
g82
I3
ssg83
g3163
sg76
(lp3170
S''
asbasbasbag69
(g85
g71
NtRp3171
(dp3172
g74
(dp3173
sg83
g3067
sg76
(lp3174
g69
(g90
g71
NtRp3175
(dp3176
g74
(dp3177
g94
g95
ssg83
g3171
sg76
(lp3178
g411
asbag69
(g90
g71
NtRp3179
(dp3180
g74
(dp3181
g101
g102
ssg83
g3171
sg76
(lp3182
S':'
asbag69
(g90
g71
NtRp3183
(dp3184
g74
(dp3185
sg83
g3171
sg76
(lp3186
g69
(g70
g71
NtRp3187
(dp3188
g74
(dp3189
g82
I3
ssg83
g3183
sg76
(lp3190
S'/'
asbasbasbag69
(g85
g71
NtRp3191
(dp3192
g74
(dp3193
sg83
g3067
sg76
(lp3194
g69
(g90
g71
NtRp3195
(dp3196
g74
(dp3197
g94
g95
ssg83
g3191
sg76
(lp3198
g432
asbag69
(g90
g71
NtRp3199
(dp3200
g74
(dp3201
g101
g102
ssg83
g3191
sg76
(lp3202
S':'
asbag69
(g90
g71
NtRp3203
(dp3204
g74
(dp3205
sg83
g3191
sg76
(lp3206
g69
(g70
g71
NtRp3207
(dp3208
g74
(dp3209
g82
I3
ssg83
g3203
sg76
(lp3210
S''
asbasbasbag69
(g85
g71
NtRp3211
(dp3212
g74
(dp3213
sg83
g3067
sg76
(lp3214
g69
(g90
g71
NtRp3215
(dp3216
g74
(dp3217
g94
g95
ssg83
g3211
sg76
(lp3218
g453
asbag69
(g90
g71
NtRp3219
(dp3220
g74
(dp3221
g101
g102
ssg83
g3211
sg76
(lp3222
S':'
asbag69
(g90
g71
NtRp3223
(dp3224
g74
(dp3225
sg83
g3211
sg76
(lp3226
g69
(g70
g71
NtRp3227
(dp3228
g74
(dp3229
g82
I3
ssg83
g3223
sg76
(lp3230
S''
asbasbasbasbasbasbasbasbasbasbasbag69
(g85
g71
NtRp3231
(dp3232
g74
(dp3233
sg83
g2997
sg76
(lp3234
g69
(g90
g71
NtRp3235
(dp3236
g74
(dp3237
g94
g95
ssg83
g3231
sg76
(lp3238
S'delimiters'
p3239
asbag69
(g90
g71
NtRp3240
(dp3241
g74
(dp3242
g101
g102
ssg83
g3231
sg76
(lp3243
S':'
asbag69
(g90
g71
NtRp3244
(dp3245
g74
(dp3246
sg83
g3231
sg76
(lp3247
g69
(g70
g71
NtRp3248
(dp3249
g74
(dp3250
g82
I5
ssg83
g3244
sg76
(lp3251
g69
(g78
g71
NtRp3252
(dp3253
g74
(dp3254
g82
I4
ssg83
Nsg76
(lp3255
g69
(g85
g71
NtRp3256
(dp3257
g74
(dp3258
sg83
g3252
sg76
(lp3259
g69
(g90
g71
NtRp3260
(dp3261
g74
(dp3262
sg83
g3256
sg76
(lp3263
g69
(g70
g71
NtRp3264
(dp3265
g74
(dp3266
g82
I4
ssg83
g3260
sg76
(lp3267
S'{{'
p3268
asbasbasbag69
(g85
g71
NtRp3269
(dp3270
g74
(dp3271
sg83
g3252
sg76
(lp3272
g69
(g90
g71
NtRp3273
(dp3274
g74
(dp3275
sg83
g3269
sg76
(lp3276
g69
(g70
g71
NtRp3277
(dp3278
g74
(dp3279
g82
I4
ssg83
g3273
sg76
(lp3280
S'}}'
p3281
asbasbasbasbasbasbasbag69
(g85
g71
NtRp3282
(dp3283
g74
(dp3284
sg83
g2997
sg76
(lp3285
g69
(g90
g71
NtRp3286
(dp3287
g74
(dp3288
g94
g95
ssg83
g3282
sg76
(lp3289
S'files'
p3290
asbag69
(g90
g71
NtRp3291
(dp3292
g74
(dp3293
g101
g102
ssg83
g3282
sg76
(lp3294
S':'
asbag69
(g90
g71
NtRp3295
(dp3296
g74
(dp3297
sg83
g3282
sg76
(lp3298
g69
(g70
g71
NtRp3299
(dp3300
g74
(dp3301
g82
I5
ssg83
g3295
sg76
(lp3302
g69
(g78
g71
NtRp3303
(dp3304
g74
(dp3305
g82
I4
ssg83
Nsg76
(lp3306
sbasbasbasbag69
(g85
g71
NtRp3307
(dp3308
g74
(dp3309
sg83
g2997
sg76
(lp3310
g69
(g90
g71
NtRp3311
(dp3312
g74
(dp3313
g94
g95
ssg83
g3307
sg76
(lp3314
S'flash'
p3315
asbag69
(g90
g71
NtRp3316
(dp3317
g74
(dp3318
g101
g102
ssg83
g3307
sg76
(lp3319
S':'
asbag69
(g90
g71
NtRp3320
(dp3321
g74
(dp3322
sg83
g3307
sg76
(lp3323
g69
(g70
g71
NtRp3324
(dp3325
g74
(dp3326
g82
I5
ssg83
g3320
sg76
(lp3327
S''
asbasbasbag69
(g85
g71
NtRp3328
(dp3329
g74
(dp3330
sg83
g2997
sg76
(lp3331
g69
(g90
g71
NtRp3332
(dp3333
g74
(dp3334
g94
g95
ssg83
g3328
sg76
(lp3335
S'generic_patterns'
p3336
asbag69
(g90
g71
NtRp3337
(dp3338
g74
(dp3339
g101
g102
ssg83
g3328
sg76
(lp3340
S':'
asbag69
(g90
g71
NtRp3341
(dp3342
g74
(dp3343
sg83
g3328
sg76
(lp3344
g69
(g70
g71
NtRp3345
(dp3346
g74
(dp3347
g82
I5
ssg83
g3341
sg76
(lp3348
g69
(g78
g71
NtRp3349
(dp3350
g74
(dp3351
g82
I4
ssg83
Nsg76
(lp3352
sbasbasbasbag69
(g85
g71
NtRp3353
(dp3354
g74
(dp3355
sg83
g2997
sg76
(lp3356
g69
(g90
g71
NtRp3357
(dp3358
g74
(dp3359
g94
g95
ssg83
g3353
sg76
(lp3360
S'headers'
p3361
asbag69
(g90
g71
NtRp3362
(dp3363
g74
(dp3364
g101
g102
ssg83
g3353
sg76
(lp3365
S':'
asbag69
(g90
g71
NtRp3366
(dp3367
g74
(dp3368
sg83
g3353
sg76
(lp3369
g69
(g70
g71
NtRp3370
(dp3371
g74
(dp3372
g82
I5
ssg83
g3366
sg76
(lp3373
g69
(g78
g71
NtRp3374
(dp3375
g74
(dp3376
g82
I4
ssg83
Nsg76
(lp3377
g69
(g85
g71
NtRp3378
(dp3379
g74
(dp3380
sg83
g3374
sg76
(lp3381
g69
(g90
g71
NtRp3382
(dp3383
g74
(dp3384
g94
g95
ssg83
g3378
sg76
(lp3385
S'X-Powered-By'
p3386
asbag69
(g90
g71
NtRp3387
(dp3388
g74
(dp3389
g101
g102
ssg83
g3378
sg76
(lp3390
S':'
asbag69
(g90
g71
NtRp3391
(dp3392
g74
(dp3393
sg83
g3378
sg76
(lp3394
g69
(g70
g71
NtRp3395
(dp3396
g74
(dp3397
g82
I4
ssg83
g3391
sg76
(lp3398
S'web2py'
p3399
asbasbasbasbasbasbasbag69
(g85
g71
NtRp3400
(dp3401
g74
(dp3402
sg83
g2997
sg76
(lp3403
g69
(g90
g71
NtRp3404
(dp3405
g74
(dp3406
g94
g95
ssg83
g3400
sg76
(lp3407
S'menu'
p3408
asbag69
(g90
g71
NtRp3409
(dp3410
g74
(dp3411
g101
g102
ssg83
g3400
sg76
(lp3412
S':'
asbag69
(g90
g71
NtRp3413
(dp3414
g74
(dp3415
sg83
g3400
sg76
(lp3416
g69
(g70
g71
NtRp3417
(dp3418
g74
(dp3419
g82
I5
ssg83
g3413
sg76
(lp3420
g69
(g78
g71
NtRp3421
(dp3422
g74
(dp3423
g82
I4
ssg83
Nsg76
(lp3424
sbasbasbasbag69
(g85
g71
NtRp3425
(dp3426
g74
(dp3427
sg83
g2997
sg76
(lp3428
g69
(g90
g71
NtRp3429
(dp3430
g74
(dp3431
g94
g95
ssg83
g3425
sg76
(lp3432
S'meta'
p3433
asbag69
(g90
g71
NtRp3434
(dp3435
g74
(dp3436
g101
g102
ssg83
g3425
sg76
(lp3437
S':'
asbag69
(g90
g71
NtRp3438
(dp3439
g74
(dp3440
sg83
g3425
sg76
(lp3441
g69
(g70
g71
NtRp3442
(dp3443
g74
(dp3444
g82
I5
ssg83
g3438
sg76
(lp3445
g69
(g78
g71
NtRp3446
(dp3447
g74
(dp3448
g82
I4
ssg83
Nsg76
(lp3449
sbasbasbasbag69
(g85
g71
NtRp3450
(dp3451
g74
(dp3452
sg83
g2997
sg76
(lp3453
g69
(g90
g71
NtRp3454
(dp3455
g74
(dp3456
g94
g95
ssg83
g3450
sg76
(lp3457
S'models_to_run'
p3458
asbag69
(g90
g71
NtRp3459
(dp3460
g74
(dp3461
g101
g102
ssg83
g3450
sg76
(lp3462
S':'
asbag69
(g90
g71
NtRp3463
(dp3464
g74
(dp3465
sg83
g3450
sg76
(lp3466
g69
(g70
g71
NtRp3467
(dp3468
g74
(dp3469
g82
I5
ssg83
g3463
sg76
(lp3470
g69
(g78
g71
NtRp3471
(dp3472
g74
(dp3473
g82
I4
ssg83
Nsg76
(lp3474
g69
(g85
g71
NtRp3475
(dp3476
g74
(dp3477
sg83
g3471
sg76
(lp3478
g69
(g90
g71
NtRp3479
(dp3480
g74
(dp3481
sg83
g3475
sg76
(lp3482
g69
(g70
g71
NtRp3483
(dp3484
g74
(dp3485
g82
I4
ssg83
g3479
sg76
(lp3486
S'^\\w+\\.py$'
p3487
asbasbasbag69
(g85
g71
NtRp3488
(dp3489
g74
(dp3490
sg83
g3471
sg76
(lp3491
g69
(g90
g71
NtRp3492
(dp3493
g74
(dp3494
sg83
g3488
sg76
(lp3495
g69
(g70
g71
NtRp3496
(dp3497
g74
(dp3498
g82
I4
ssg83
g3492
sg76
(lp3499
S'^post/\\w+\\.py$'
p3500
asbasbasbag69
(g85
g71
NtRp3501
(dp3502
g74
(dp3503
sg83
g3471
sg76
(lp3504
g69
(g90
g71
NtRp3505
(dp3506
g74
(dp3507
sg83
g3501
sg76
(lp3508
g69
(g70
g71
NtRp3509
(dp3510
g74
(dp3511
g82
I4
ssg83
g3505
sg76
(lp3512
S'^post/add/\\w+\\.py$'
p3513
asbasbasbasbasbasbasbag69
(g85
g71
NtRp3514
(dp3515
g74
(dp3516
sg83
g2997
sg76
(lp3517
g69
(g90
g71
NtRp3518
(dp3519
g74
(dp3520
g94
g95
ssg83
g3514
sg76
(lp3521
S'postprocessing'
p3522
asbag69
(g90
g71
NtRp3523
(dp3524
g74
(dp3525
g101
g102
ssg83
g3514
sg76
(lp3526
S':'
asbag69
(g90
g71
NtRp3527
(dp3528
g74
(dp3529
sg83
g3514
sg76
(lp3530
g69
(g70
g71
NtRp3531
(dp3532
g74
(dp3533
g82
I5
ssg83
g3527
sg76
(lp3534
g69
(g78
g71
NtRp3535
(dp3536
g74
(dp3537
g82
I4
ssg83
Nsg76
(lp3538
sbasbasbasbag69
(g85
g71
NtRp3539
(dp3540
g74
(dp3541
sg83
g2997
sg76
(lp3542
g69
(g90
g71
NtRp3543
(dp3544
g74
(dp3545
g94
g95
ssg83
g3539
sg76
(lp3546
S'session_cookie_expires'
p3547
asbag69
(g90
g71
NtRp3548
(dp3549
g74
(dp3550
g101
g102
ssg83
g3539
sg76
(lp3551
S':'
asbag69
(g90
g71
NtRp3552
(dp3553
g74
(dp3554
sg83
g3539
sg76
(lp3555
g69
(g70
g71
NtRp3556
(dp3557
g74
(dp3558
g82
I5
ssg83
g3552
sg76
(lp3559
S'None'
p3560
asbasbasbag69
(g85
g71
NtRp3561
(dp3562
g74
(dp3563
sg83
g2997
sg76
(lp3564
g69
(g90
g71
NtRp3565
(dp3566
g74
(dp3567
g94
g95
ssg83
g3561
sg76
(lp3568
S'session_data_name'
p3569
asbag69
(g90
g71
NtRp3570
(dp3571
g74
(dp3572
g101
g102
ssg83
g3561
sg76
(lp3573
S':'
asbag69
(g90
g71
NtRp3574
(dp3575
g74
(dp3576
sg83
g3561
sg76
(lp3577
g69
(g70
g71
NtRp3578
(dp3579
g74
(dp3580
g82
I5
ssg83
g3574
sg76
(lp3581
S'session_data_blog'
p3582
asbasbasbag69
(g85
g71
NtRp3583
(dp3584
g74
(dp3585
sg83
g2997
sg76
(lp3586
g69
(g90
g71
NtRp3587
(dp3588
g74
(dp3589
g94
g95
ssg83
g3583
sg76
(lp3590
S'session_file'
p3591
asbag69
(g90
g71
NtRp3592
(dp3593
g74
(dp3594
g101
g102
ssg83
g3583
sg76
(lp3595
S':'
asbag69
(g90
g71
NtRp3596
(dp3597
g74
(dp3598
sg83
g3583
sg76
(lp3599
g69
(g70
g71
NtRp3600
(dp3601
g74
(dp3602
g82
I5
ssg83
g3596
sg76
(lp3603
S'None'
p3604
asbasbasbag69
(g85
g71
NtRp3605
(dp3606
g74
(dp3607
sg83
g2997
sg76
(lp3608
g69
(g90
g71
NtRp3609
(dp3610
g74
(dp3611
g94
g95
ssg83
g3605
sg76
(lp3612
S'session_filename'
p3613
asbag69
(g90
g71
NtRp3614
(dp3615
g74
(dp3616
g101
g102
ssg83
g3605
sg76
(lp3617
S':'
asbag69
(g90
g71
NtRp3618
(dp3619
g74
(dp3620
sg83
g3605
sg76
(lp3621
g69
(g70
g71
NtRp3622
(dp3623
g74
(dp3624
g82
I5
ssg83
g3618
sg76
(lp3625
S'/home/rochacbruno/Dropbox/stoodos/w2p/web2py/applications/blog/sessions/127.0.0.1-41f3a938-69d7-4315-b7a4-8e2d90d156b9'
p3626
asbasbasbag69
(g85
g71
NtRp3627
(dp3628
g74
(dp3629
sg83
g2997
sg76
(lp3630
g69
(g90
g71
NtRp3631
(dp3632
g74
(dp3633
g94
g95
ssg83
g3627
sg76
(lp3634
S'session_id'
p3635
asbag69
(g90
g71
NtRp3636
(dp3637
g74
(dp3638
g101
g102
ssg83
g3627
sg76
(lp3639
S':'
asbag69
(g90
g71
NtRp3640
(dp3641
g74
(dp3642
sg83
g3627
sg76
(lp3643
g69
(g70
g71
NtRp3644
(dp3645
g74
(dp3646
g82
I5
ssg83
g3640
sg76
(lp3647
g293
asbasbasbag69
(g85
g71
NtRp3648
(dp3649
g74
(dp3650
sg83
g2997
sg76
(lp3651
g69
(g90
g71
NtRp3652
(dp3653
g74
(dp3654
g94
g95
ssg83
g3648
sg76
(lp3655
S'session_id_name'
p3656
asbag69
(g90
g71
NtRp3657
(dp3658
g74
(dp3659
g101
g102
ssg83
g3648
sg76
(lp3660
S':'
asbag69
(g90
g71
NtRp3661
(dp3662
g74
(dp3663
sg83
g3648
sg76
(lp3664
g69
(g70
g71
NtRp3665
(dp3666
g74
(dp3667
g82
I5
ssg83
g3661
sg76
(lp3668
g3054
asbasbasbag69
(g85
g71
NtRp3669
(dp3670
g74
(dp3671
sg83
g2997
sg76
(lp3672
g69
(g90
g71
NtRp3673
(dp3674
g74
(dp3675
g94
g95
ssg83
g3669
sg76
(lp3676
S'session_new'
p3677
asbag69
(g90
g71
NtRp3678
(dp3679
g74
(dp3680
g101
g102
ssg83
g3669
sg76
(lp3681
S':'
asbag69
(g90
g71
NtRp3682
(dp3683
g74
(dp3684
sg83
g3669
sg76
(lp3685
g69
(g70
g71
NtRp3686
(dp3687
g74
(dp3688
g82
I5
ssg83
g3682
sg76
(lp3689
g112
asbasbasbag69
(g85
g71
NtRp3690
(dp3691
g74
(dp3692
sg83
g2997
sg76
(lp3693
g69
(g90
g71
NtRp3694
(dp3695
g74
(dp3696
g94
g95
ssg83
g3690
sg76
(lp3697
S'session_storage_type'
p3698
asbag69
(g90
g71
NtRp3699
(dp3700
g74
(dp3701
g101
g102
ssg83
g3690
sg76
(lp3702
S':'
asbag69
(g90
g71
NtRp3703
(dp3704
g74
(dp3705
sg83
g3690
sg76
(lp3706
g69
(g70
g71
NtRp3707
(dp3708
g74
(dp3709
g82
I5
ssg83
g3703
sg76
(lp3710
g2926
asbasbasbag69
(g85
g71
NtRp3711
(dp3712
g74
(dp3713
sg83
g2997
sg76
(lp3714
g69
(g90
g71
NtRp3715
(dp3716
g74
(dp3717
g94
g95
ssg83
g3711
sg76
(lp3718
S'status'
p3719
asbag69
(g90
g71
NtRp3720
(dp3721
g74
(dp3722
g101
g102
ssg83
g3711
sg76
(lp3723
S':'
asbag69
(g90
g71
NtRp3724
(dp3725
g74
(dp3726
sg83
g3711
sg76
(lp3727
g69
(g70
g71
NtRp3728
(dp3729
g74
(dp3730
g82
I5
ssg83
g3724
sg76
(lp3731
S'200'
p3732
asbasbasbag69
(g85
g71
NtRp3733
(dp3734
g74
(dp3735
sg83
g2997
sg76
(lp3736
g69
(g90
g71
NtRp3737
(dp3738
g74
(dp3739
g94
g95
ssg83
g3733
sg76
(lp3740
S'view'
p3741
asbag69
(g90
g71
NtRp3742
(dp3743
g74
(dp3744
g101
g102
ssg83
g3733
sg76
(lp3745
S':'
asbag69
(g90
g71
NtRp3746
(dp3747
g74
(dp3748
sg83
g3733
sg76
(lp3749
g69
(g70
g71
NtRp3750
(dp3751
g74
(dp3752
g82
I5
ssg83
g3746
sg76
(lp3753
S'post/add.html'
p3754
asbasbasbasbasbsS'locals'
p3755
(dp3756
g4
S"'/home/rochacbruno/Dropbox/stoodos/w2p/web2py/applications/blog/controllers/post.py'"
p3757
sg6
S'\'def show():\\n    return "post"\\n\\ndef edit():\\n    r...turn "add"\\n\\nresponse._vars=response._caller(add)\\n\''
p3758
sssS'traceback'
p3759
S'Traceback (most recent call last):\n  File "/home/rochacbruno/Dropbox/stoodos/w2p/web2py/gluon/restricted.py", line 211, in restricted\n    ccode = compile2(code, layer)\n  File "/home/rochacbruno/Dropbox/stoodos/w2p/web2py/gluon/restricted.py", line 194, in compile2\n    return compile(code.rstrip().replace(\'\\r\\n\', \'\\n\') + \'\\n\', layer, \'exec\')\n  File "/home/rochacbruno/Dropbox/stoodos/w2p/web2py/applications/blog/controllers/post.py", line 12\n    return "add"\n               ^\nIndentationError: unindent does not match any outer indentation level\n'
p3760
s.