(dp1
S'output'
p2
S"<type 'exceptions.SyntaxError'> invalid syntax (models.py, line 3)"
p3
sS'layer'
p4
S'/home/rochacbruno/Dropbox/stoodos/w2p/web2py/applications/blog/models/models.py'
p5
sS'code'
p6
S'\nBlog = db.define_table("blog"\n      Field("title")\n\t)\n'
p7
sS'snapshot'
p8
(dp9
S'exception'
p10
(dp11
S'__getslice__'
p12
S"<method-wrapper '__getslice__' of exceptions.SyntaxError object>"
p13
sS'text'
p14
S'\'      Field("title")\\n\''
p15
sS'__str__'
p16
S"<method-wrapper '__str__' of exceptions.SyntaxError object>"
p17
sS'__reduce__'
p18
S'<built-in method __reduce__ of exceptions.SyntaxError object>'
p19
sS'__dict__'
p20
S'{}'
p21
sS'__sizeof__'
p22
S'<built-in method __sizeof__ of exceptions.SyntaxError object>'
p23
sS'__init__'
p24
S"<method-wrapper '__init__' of exceptions.SyntaxError object>"
p25
sS'__setattr__'
p26
S"<method-wrapper '__setattr__' of exceptions.SyntaxError object>"
p27
sS'__reduce_ex__'
p28
S'<built-in method __reduce_ex__ of exceptions.SyntaxError object>'
p29
sS'__new__'
p30
S'<built-in method __new__ of type object>'
p31
sS'__format__'
p32
S'<built-in method __format__ of exceptions.SyntaxError object>'
p33
sS'__class__'
p34
S"<type 'exceptions.SyntaxError'>"
p35
sS'filename'
p36
S"'/home/rochacbruno/Dropbox/stoodos/w2p/web2py/applications/blog/models/models.py'"
p37
sS'lineno'
p38
S'3'
sS'msg'
p39
S"'invalid syntax'"
p40
sS'__doc__'
p41
S"'Invalid syntax.'"
p42
sS'__getitem__'
p43
S"<method-wrapper '__getitem__' of exceptions.SyntaxError object>"
p44
sS'__setstate__'
p45
S'<built-in method __setstate__ of exceptions.SyntaxError object>'
p46
sS'__getattribute__'
p47
S"<method-wrapper '__getattribute__' of exceptions.SyntaxError object>"
p48
sS'print_file_and_line'
p49
S'None'
p50
sS'args'
p51
S'(\'invalid syntax\', (\'/home/rochacbruno/Dropbox/stoodos/w2p/web2py/applications/blog/models/models.py\', 3, 11, \'      Field("title")\\n\'))'
p52
sS'__subclasshook__'
p53
S'<built-in method __subclasshook__ of type object>'
p54
sS'offset'
p55
S'11'
p56
sS'__unicode__'
p57
S'<built-in method __unicode__ of exceptions.SyntaxError object>'
p58
sS'__delattr__'
p59
S"<method-wrapper '__delattr__' of exceptions.SyntaxError object>"
p60
sS'__repr__'
p61
S"<method-wrapper '__repr__' of exceptions.SyntaxError object>"
p62
sS'__hash__'
p63
S"<method-wrapper '__hash__' of exceptions.SyntaxError object>"
p64
ssS'evalue'
p65
S'invalid syntax (models.py, line 3)'
p66
sS'request'
p67
ccopy_reg
_reconstructor
p68
(cgluon.html
BEAUTIFY
p69
c__builtin__
object
p70
NtRp71
(dp72
S'attributes'
p73
(dp74
sS'components'
p75
(lp76
g68
(cgluon.html
TABLE
p77
g70
NtRp78
(dp79
g73
(dp80
S'level'
p81
I5
ssS'parent'
p82
Nsg75
(lp83
g68
(cgluon.html
TR
p84
g70
NtRp85
(dp86
g73
(dp87
sg82
g78
sg75
(lp88
g68
(cgluon.html
TD
p89
g70
NtRp90
(dp91
g73
(dp92
S'_style'
p93
S'font-weight:bold;vertical-align:top'
p94
ssg82
g85
sg75
(lp95
S'ajax'
p96
asbag68
(g89
g70
NtRp97
(dp98
g73
(dp99
S'_valign'
p100
S'top'
p101
ssg82
g85
sg75
(lp102
S':'
asbag68
(g89
g70
NtRp103
(dp104
g73
(dp105
sg82
g85
sg75
(lp106
g68
(g69
g70
NtRp107
(dp108
g73
(dp109
g81
I5
ssg82
g103
sg75
(lp110
S'False'
p111
asbasbasbag68
(g84
g70
NtRp112
(dp113
g73
(dp114
sg82
g78
sg75
(lp115
g68
(g89
g70
NtRp116
(dp117
g73
(dp118
g93
g94
ssg82
g112
sg75
(lp119
S'application'
p120
asbag68
(g89
g70
NtRp121
(dp122
g73
(dp123
g100
g101
ssg82
g112
sg75
(lp124
S':'
asbag68
(g89
g70
NtRp125
(dp126
g73
(dp127
sg82
g112
sg75
(lp128
g68
(g69
g70
NtRp129
(dp130
g73
(dp131
g81
I5
ssg82
g125
sg75
(lp132
S'blog'
p133
asbasbasbag68
(g84
g70
NtRp134
(dp135
g73
(dp136
sg82
g78
sg75
(lp137
g68
(g89
g70
NtRp138
(dp139
g73
(dp140
g93
g94
ssg82
g134
sg75
(lp141
g51
asbag68
(g89
g70
NtRp142
(dp143
g73
(dp144
g100
g101
ssg82
g134
sg75
(lp145
S':'
asbag68
(g89
g70
NtRp146
(dp147
g73
(dp148
sg82
g134
sg75
(lp149
g68
(g69
g70
NtRp150
(dp151
g73
(dp152
g81
I5
ssg82
g146
sg75
(lp153
g68
(g77
g70
NtRp154
(dp155
g73
(dp156
g81
I4
ssg82
Nsg75
(lp157
sbasbasbasbag68
(g84
g70
NtRp158
(dp159
g73
(dp160
sg82
g78
sg75
(lp161
g68
(g89
g70
NtRp162
(dp163
g73
(dp164
g93
g94
ssg82
g158
sg75
(lp165
S'body'
p166
asbag68
(g89
g70
NtRp167
(dp168
g73
(dp169
g100
g101
ssg82
g158
sg75
(lp170
S':'
asbag68
(g89
g70
NtRp171
(dp172
g73
(dp173
sg82
g158
sg75
(lp174
g68
(g69
g70
NtRp175
(dp176
g73
(dp177
g81
I5
ssg82
g171
sg75
(lp178
S'<cStringIO.StringO object at 0x1c1ffb8>'
p179
asbasbasbag68
(g84
g70
NtRp180
(dp181
g73
(dp182
sg82
g78
sg75
(lp183
g68
(g89
g70
NtRp184
(dp185
g73
(dp186
g93
g94
ssg82
g180
sg75
(lp187
S'cid'
p188
asbag68
(g89
g70
NtRp189
(dp190
g73
(dp191
g100
g101
ssg82
g180
sg75
(lp192
S':'
asbag68
(g89
g70
NtRp193
(dp194
g73
(dp195
sg82
g180
sg75
(lp196
g68
(g69
g70
NtRp197
(dp198
g73
(dp199
g81
I5
ssg82
g193
sg75
(lp200
S'None'
p201
asbasbasbag68
(g84
g70
NtRp202
(dp203
g73
(dp204
sg82
g78
sg75
(lp205
g68
(g89
g70
NtRp206
(dp207
g73
(dp208
g93
g94
ssg82
g202
sg75
(lp209
S'client'
p210
asbag68
(g89
g70
NtRp211
(dp212
g73
(dp213
g100
g101
ssg82
g202
sg75
(lp214
S':'
asbag68
(g89
g70
NtRp215
(dp216
g73
(dp217
sg82
g202
sg75
(lp218
g68
(g69
g70
NtRp219
(dp220
g73
(dp221
g81
I5
ssg82
g215
sg75
(lp222
S'127.0.0.1'
p223
asbasbasbag68
(g84
g70
NtRp224
(dp225
g73
(dp226
sg82
g78
sg75
(lp227
g68
(g89
g70
NtRp228
(dp229
g73
(dp230
g93
g94
ssg82
g224
sg75
(lp231
S'controller'
p232
asbag68
(g89
g70
NtRp233
(dp234
g73
(dp235
g100
g101
ssg82
g224
sg75
(lp236
S':'
asbag68
(g89
g70
NtRp237
(dp238
g73
(dp239
sg82
g224
sg75
(lp240
g68
(g69
g70
NtRp241
(dp242
g73
(dp243
g81
I5
ssg82
g237
sg75
(lp244
S'initial'
p245
asbasbasbag68
(g84
g70
NtRp246
(dp247
g73
(dp248
sg82
g78
sg75
(lp249
g68
(g89
g70
NtRp250
(dp251
g73
(dp252
g93
g94
ssg82
g246
sg75
(lp253
S'cookies'
p254
asbag68
(g89
g70
NtRp255
(dp256
g73
(dp257
g100
g101
ssg82
g246
sg75
(lp258
S':'
asbag68
(g89
g70
NtRp259
(dp260
g73
(dp261
sg82
g246
sg75
(lp262
g68
(g69
g70
NtRp263
(dp264
g73
(dp265
g81
I5
ssg82
g259
sg75
(lp266
g68
(g77
g70
NtRp267
(dp268
g73
(dp269
g81
I4
ssg82
Nsg75
(lp270
g68
(g84
g70
NtRp271
(dp272
g73
(dp273
sg82
g267
sg75
(lp274
g68
(g89
g70
NtRp275
(dp276
g73
(dp277
g93
g94
ssg82
g271
sg75
(lp278
S'session_id_blog'
p279
asbag68
(g89
g70
NtRp280
(dp281
g73
(dp282
g100
g101
ssg82
g271
sg75
(lp283
S':'
asbag68
(g89
g70
NtRp284
(dp285
g73
(dp286
sg82
g271
sg75
(lp287
g68
(g69
g70
NtRp288
(dp289
g73
(dp290
g81
I4
ssg82
g284
sg75
(lp291
S'127.0.0.1-687f191b-74f9-42d7-b571-dcfad5f5eb1d'
p292
ag68
(g77
g70
NtRp293
(dp294
g73
(dp295
g81
I3
ssg82
Nsg75
(lp296
g68
(g84
g70
NtRp297
(dp298
g73
(dp299
sg82
g293
sg75
(lp300
g68
(g89
g70
NtRp301
(dp302
g73
(dp303
g93
g94
ssg82
g297
sg75
(lp304
S'comment'
p305
asbag68
(g89
g70
NtRp306
(dp307
g73
(dp308
g100
g101
ssg82
g297
sg75
(lp309
S':'
asbag68
(g89
g70
NtRp310
(dp311
g73
(dp312
sg82
g297
sg75
(lp313
g68
(g69
g70
NtRp314
(dp315
g73
(dp316
g81
I3
ssg82
g310
sg75
(lp317
S''
asbasbasbag68
(g84
g70
NtRp318
(dp319
g73
(dp320
sg82
g293
sg75
(lp321
g68
(g89
g70
NtRp322
(dp323
g73
(dp324
g93
g94
ssg82
g318
sg75
(lp325
S'domain'
p326
asbag68
(g89
g70
NtRp327
(dp328
g73
(dp329
g100
g101
ssg82
g318
sg75
(lp330
S':'
asbag68
(g89
g70
NtRp331
(dp332
g73
(dp333
sg82
g318
sg75
(lp334
g68
(g69
g70
NtRp335
(dp336
g73
(dp337
g81
I3
ssg82
g331
sg75
(lp338
S''
asbasbasbag68
(g84
g70
NtRp339
(dp340
g73
(dp341
sg82
g293
sg75
(lp342
g68
(g89
g70
NtRp343
(dp344
g73
(dp345
g93
g94
ssg82
g339
sg75
(lp346
S'expires'
p347
asbag68
(g89
g70
NtRp348
(dp349
g73
(dp350
g100
g101
ssg82
g339
sg75
(lp351
S':'
asbag68
(g89
g70
NtRp352
(dp353
g73
(dp354
sg82
g339
sg75
(lp355
g68
(g69
g70
NtRp356
(dp357
g73
(dp358
g81
I3
ssg82
g352
sg75
(lp359
S''
asbasbasbag68
(g84
g70
NtRp360
(dp361
g73
(dp362
sg82
g293
sg75
(lp363
g68
(g89
g70
NtRp364
(dp365
g73
(dp366
g93
g94
ssg82
g360
sg75
(lp367
S'httponly'
p368
asbag68
(g89
g70
NtRp369
(dp370
g73
(dp371
g100
g101
ssg82
g360
sg75
(lp372
S':'
asbag68
(g89
g70
NtRp373
(dp374
g73
(dp375
sg82
g360
sg75
(lp376
g68
(g69
g70
NtRp377
(dp378
g73
(dp379
g81
I3
ssg82
g373
sg75
(lp380
S''
asbasbasbag68
(g84
g70
NtRp381
(dp382
g73
(dp383
sg82
g293
sg75
(lp384
g68
(g89
g70
NtRp385
(dp386
g73
(dp387
g93
g94
ssg82
g381
sg75
(lp388
S'max-age'
p389
asbag68
(g89
g70
NtRp390
(dp391
g73
(dp392
g100
g101
ssg82
g381
sg75
(lp393
S':'
asbag68
(g89
g70
NtRp394
(dp395
g73
(dp396
sg82
g381
sg75
(lp397
g68
(g69
g70
NtRp398
(dp399
g73
(dp400
g81
I3
ssg82
g394
sg75
(lp401
S''
asbasbasbag68
(g84
g70
NtRp402
(dp403
g73
(dp404
sg82
g293
sg75
(lp405
g68
(g89
g70
NtRp406
(dp407
g73
(dp408
g93
g94
ssg82
g402
sg75
(lp409
S'path'
p410
asbag68
(g89
g70
NtRp411
(dp412
g73
(dp413
g100
g101
ssg82
g402
sg75
(lp414
S':'
asbag68
(g89
g70
NtRp415
(dp416
g73
(dp417
sg82
g402
sg75
(lp418
g68
(g69
g70
NtRp419
(dp420
g73
(dp421
g81
I3
ssg82
g415
sg75
(lp422
S''
asbasbasbag68
(g84
g70
NtRp423
(dp424
g73
(dp425
sg82
g293
sg75
(lp426
g68
(g89
g70
NtRp427
(dp428
g73
(dp429
g93
g94
ssg82
g423
sg75
(lp430
S'secure'
p431
asbag68
(g89
g70
NtRp432
(dp433
g73
(dp434
g100
g101
ssg82
g423
sg75
(lp435
S':'
asbag68
(g89
g70
NtRp436
(dp437
g73
(dp438
sg82
g423
sg75
(lp439
g68
(g69
g70
NtRp440
(dp441
g73
(dp442
g81
I3
ssg82
g436
sg75
(lp443
S''
asbasbasbag68
(g84
g70
NtRp444
(dp445
g73
(dp446
sg82
g293
sg75
(lp447
g68
(g89
g70
NtRp448
(dp449
g73
(dp450
g93
g94
ssg82
g444
sg75
(lp451
S'version'
p452
asbag68
(g89
g70
NtRp453
(dp454
g73
(dp455
g100
g101
ssg82
g444
sg75
(lp456
S':'
asbag68
(g89
g70
NtRp457
(dp458
g73
(dp459
sg82
g444
sg75
(lp460
g68
(g69
g70
NtRp461
(dp462
g73
(dp463
g81
I3
ssg82
g457
sg75
(lp464
S''
asbasbasbasbasbasbasbasbasbasbasbag68
(g84
g70
NtRp465
(dp466
g73
(dp467
sg82
g78
sg75
(lp468
g68
(g89
g70
NtRp469
(dp470
g73
(dp471
g93
g94
ssg82
g465
sg75
(lp472
S'env'
p473
asbag68
(g89
g70
NtRp474
(dp475
g73
(dp476
g100
g101
ssg82
g465
sg75
(lp477
S':'
asbag68
(g89
g70
NtRp478
(dp479
g73
(dp480
sg82
g465
sg75
(lp481
g68
(g69
g70
NtRp482
(dp483
g73
(dp484
g81
I5
ssg82
g478
sg75
(lp485
g68
(g77
g70
NtRp486
(dp487
g73
(dp488
g81
I4
ssg82
Nsg75
(lp489
g68
(g84
g70
NtRp490
(dp491
g73
(dp492
sg82
g486
sg75
(lp493
g68
(g89
g70
NtRp494
(dp495
g73
(dp496
g93
g94
ssg82
g490
sg75
(lp497
S'app_folders'
p498
asbag68
(g89
g70
NtRp499
(dp500
g73
(dp501
g100
g101
ssg82
g490
sg75
(lp502
S':'
asbag68
(g89
g70
NtRp503
(dp504
g73
(dp505
sg82
g490
sg75
(lp506
g68
(g69
g70
NtRp507
(dp508
g73
(dp509
g81
I4
ssg82
g503
sg75
(lp510
S"set(['/home/rochacbruno/Dropbox/stoodos/w2p/web2py/applications/blog/'])"
p511
asbasbasbag68
(g84
g70
NtRp512
(dp513
g73
(dp514
sg82
g486
sg75
(lp515
g68
(g89
g70
NtRp516
(dp517
g73
(dp518
g93
g94
ssg82
g512
sg75
(lp519
S'applications_parent'
p520
asbag68
(g89
g70
NtRp521
(dp522
g73
(dp523
g100
g101
ssg82
g512
sg75
(lp524
S':'
asbag68
(g89
g70
NtRp525
(dp526
g73
(dp527
sg82
g512
sg75
(lp528
g68
(g69
g70
NtRp529
(dp530
g73
(dp531
g81
I4
ssg82
g525
sg75
(lp532
S'/home/rochacbruno/Dropbox/stoodos/w2p/web2py'
p533
asbasbasbag68
(g84
g70
NtRp534
(dp535
g73
(dp536
sg82
g486
sg75
(lp537
g68
(g89
g70
NtRp538
(dp539
g73
(dp540
g93
g94
ssg82
g534
sg75
(lp541
S'cmd_args'
p542
asbag68
(g89
g70
NtRp543
(dp544
g73
(dp545
g100
g101
ssg82
g534
sg75
(lp546
S':'
asbag68
(g89
g70
NtRp547
(dp548
g73
(dp549
sg82
g534
sg75
(lp550
g68
(g69
g70
NtRp551
(dp552
g73
(dp553
g81
I4
ssg82
g547
sg75
(lp554
g68
(g77
g70
NtRp555
(dp556
g73
(dp557
g81
I3
ssg82
Nsg75
(lp558
sbasbasbasbag68
(g84
g70
NtRp559
(dp560
g73
(dp561
sg82
g486
sg75
(lp562
g68
(g89
g70
NtRp563
(dp564
g73
(dp565
g93
g94
ssg82
g559
sg75
(lp566
S'cmd_options'
p567
asbag68
(g89
g70
NtRp568
(dp569
g73
(dp570
g100
g101
ssg82
g559
sg75
(lp571
S':'
asbag68
(g89
g70
NtRp572
(dp573
g73
(dp574
sg82
g559
sg75
(lp575
g68
(g69
g70
NtRp576
(dp577
g73
(dp578
g81
I4
ssg82
g572
sg75
(lp579
S"<Values at 0x1d7e9e0: {'verbose': False, 'ip': '127.0.0.1', 'with_scheduler': False, 'ips': [], 'shutdown_timeout': 5, 'taskbar': False, 'port': 8000, 'maxthreads': None, 'softcron': False, 'server_name': 'crunchbang', 'bpython': False, 'nogui': False, 'pid_filename': 'httpserver.pid', 'extcron': False, 'runcron': False, 'run_system_tests': False, 'test': None, 'folder': '/home/rochacbruno/Dropbox/stoodos/w2p/web2py', 'config': '', 'minthreads': None, 'winservice': '', 'shell': None, 'run': '', 'log_filename': 'httpserver.log', 'debuglevel': 30, 'args': [''], 'socket_timeout': 5, 'ssl_ca_certificate': None, 'scheduler': None, 'profiler_filename': None, 'ssl_private_key': '', 'scheduler_groups': None, 'password': '1234', 'request_queue_size': 5, 'ssl_certificate': '', 'cronjob': False, 'numthreads': None, 'quiet': False, 'interfaces': None, 'import_models': False, 'timeout': 10, 'plain': False, 'nobanner': False}>"
p580
asbasbasbag68
(g84
g70
NtRp581
(dp582
g73
(dp583
sg82
g486
sg75
(lp584
g68
(g89
g70
NtRp585
(dp586
g73
(dp587
g93
g94
ssg82
g581
sg75
(lp588
S'db_sessions'
p589
asbag68
(g89
g70
NtRp590
(dp591
g73
(dp592
g100
g101
ssg82
g581
sg75
(lp593
S':'
asbag68
(g89
g70
NtRp594
(dp595
g73
(dp596
sg82
g581
sg75
(lp597
g68
(g69
g70
NtRp598
(dp599
g73
(dp600
g81
I4
ssg82
g594
sg75
(lp601
S'set([])'
p602
asbasbasbag68
(g84
g70
NtRp603
(dp604
g73
(dp605
sg82
g486
sg75
(lp606
g68
(g89
g70
NtRp607
(dp608
g73
(dp609
g93
g94
ssg82
g603
sg75
(lp610
S'debugging'
p611
asbag68
(g89
g70
NtRp612
(dp613
g73
(dp614
g100
g101
ssg82
g603
sg75
(lp615
S':'
asbag68
(g89
g70
NtRp616
(dp617
g73
(dp618
sg82
g603
sg75
(lp619
g68
(g69
g70
NtRp620
(dp621
g73
(dp622
g81
I4
ssg82
g616
sg75
(lp623
g111
asbasbasbag68
(g84
g70
NtRp624
(dp625
g73
(dp626
sg82
g486
sg75
(lp627
g68
(g89
g70
NtRp628
(dp629
g73
(dp630
g93
g94
ssg82
g624
sg75
(lp631
S'gluon_parent'
p632
asbag68
(g89
g70
NtRp633
(dp634
g73
(dp635
g100
g101
ssg82
g624
sg75
(lp636
S':'
asbag68
(g89
g70
NtRp637
(dp638
g73
(dp639
sg82
g624
sg75
(lp640
g68
(g69
g70
NtRp641
(dp642
g73
(dp643
g81
I4
ssg82
g637
sg75
(lp644
S'/home/rochacbruno/Dropbox/stoodos/w2p/web2py'
p645
asbasbasbag68
(g84
g70
NtRp646
(dp647
g73
(dp648
sg82
g486
sg75
(lp649
g68
(g89
g70
NtRp650
(dp651
g73
(dp652
g93
g94
ssg82
g646
sg75
(lp653
S'http_accept'
p654
asbag68
(g89
g70
NtRp655
(dp656
g73
(dp657
g100
g101
ssg82
g646
sg75
(lp658
S':'
asbag68
(g89
g70
NtRp659
(dp660
g73
(dp661
sg82
g646
sg75
(lp662
g68
(g69
g70
NtRp663
(dp664
g73
(dp665
g81
I4
ssg82
g659
sg75
(lp666
S'text/html,application/xhtml+xml,application/xml;q=0.9,*/*;q=0.8'
p667
asbasbasbag68
(g84
g70
NtRp668
(dp669
g73
(dp670
sg82
g486
sg75
(lp671
g68
(g89
g70
NtRp672
(dp673
g73
(dp674
g93
g94
ssg82
g668
sg75
(lp675
S'http_accept_charset'
p676
asbag68
(g89
g70
NtRp677
(dp678
g73
(dp679
g100
g101
ssg82
g668
sg75
(lp680
S':'
asbag68
(g89
g70
NtRp681
(dp682
g73
(dp683
sg82
g668
sg75
(lp684
g68
(g69
g70
NtRp685
(dp686
g73
(dp687
g81
I4
ssg82
g681
sg75
(lp688
S'ISO-8859-1,utf-8;q=0.7,*;q=0.3'
p689
asbasbasbag68
(g84
g70
NtRp690
(dp691
g73
(dp692
sg82
g486
sg75
(lp693
g68
(g89
g70
NtRp694
(dp695
g73
(dp696
g93
g94
ssg82
g690
sg75
(lp697
S'http_accept_encoding'
p698
asbag68
(g89
g70
NtRp699
(dp700
g73
(dp701
g100
g101
ssg82
g690
sg75
(lp702
S':'
asbag68
(g89
g70
NtRp703
(dp704
g73
(dp705
sg82
g690
sg75
(lp706
g68
(g69
g70
NtRp707
(dp708
g73
(dp709
g81
I4
ssg82
g703
sg75
(lp710
S'gzip,deflate,sdch'
p711
asbasbasbag68
(g84
g70
NtRp712
(dp713
g73
(dp714
sg82
g486
sg75
(lp715
g68
(g89
g70
NtRp716
(dp717
g73
(dp718
g93
g94
ssg82
g712
sg75
(lp719
S'http_accept_language'
p720
asbag68
(g89
g70
NtRp721
(dp722
g73
(dp723
g100
g101
ssg82
g712
sg75
(lp724
S':'
asbag68
(g89
g70
NtRp725
(dp726
g73
(dp727
sg82
g712
sg75
(lp728
g68
(g69
g70
NtRp729
(dp730
g73
(dp731
g81
I4
ssg82
g725
sg75
(lp732
S'pt-BR,pt;q=0.8,en-US;q=0.6,en;q=0.4'
p733
asbasbasbag68
(g84
g70
NtRp734
(dp735
g73
(dp736
sg82
g486
sg75
(lp737
g68
(g89
g70
NtRp738
(dp739
g73
(dp740
g93
g94
ssg82
g734
sg75
(lp741
S'http_cache_control'
p742
asbag68
(g89
g70
NtRp743
(dp744
g73
(dp745
g100
g101
ssg82
g734
sg75
(lp746
S':'
asbag68
(g89
g70
NtRp747
(dp748
g73
(dp749
sg82
g734
sg75
(lp750
g68
(g69
g70
NtRp751
(dp752
g73
(dp753
g81
I4
ssg82
g747
sg75
(lp754
S'max-age=0'
p755
asbasbasbag68
(g84
g70
NtRp756
(dp757
g73
(dp758
sg82
g486
sg75
(lp759
g68
(g89
g70
NtRp760
(dp761
g73
(dp762
g93
g94
ssg82
g756
sg75
(lp763
S'http_connection'
p764
asbag68
(g89
g70
NtRp765
(dp766
g73
(dp767
g100
g101
ssg82
g756
sg75
(lp768
S':'
asbag68
(g89
g70
NtRp769
(dp770
g73
(dp771
sg82
g756
sg75
(lp772
g68
(g69
g70
NtRp773
(dp774
g73
(dp775
g81
I4
ssg82
g769
sg75
(lp776
S'keep-alive'
p777
asbasbasbag68
(g84
g70
NtRp778
(dp779
g73
(dp780
sg82
g486
sg75
(lp781
g68
(g89
g70
NtRp782
(dp783
g73
(dp784
g93
g94
ssg82
g778
sg75
(lp785
S'http_cookie'
p786
asbag68
(g89
g70
NtRp787
(dp788
g73
(dp789
g100
g101
ssg82
g778
sg75
(lp790
S':'
asbag68
(g89
g70
NtRp791
(dp792
g73
(dp793
sg82
g778
sg75
(lp794
g68
(g69
g70
NtRp795
(dp796
g73
(dp797
g81
I4
ssg82
g791
sg75
(lp798
S'session_id_blog=127.0.0.1-687f191b-74f9-42d7-b571-dcfad5f5eb1d'
p799
asbasbasbag68
(g84
g70
NtRp800
(dp801
g73
(dp802
sg82
g486
sg75
(lp803
g68
(g89
g70
NtRp804
(dp805
g73
(dp806
g93
g94
ssg82
g800
sg75
(lp807
S'http_host'
p808
asbag68
(g89
g70
NtRp809
(dp810
g73
(dp811
g100
g101
ssg82
g800
sg75
(lp812
S':'
asbag68
(g89
g70
NtRp813
(dp814
g73
(dp815
sg82
g800
sg75
(lp816
g68
(g69
g70
NtRp817
(dp818
g73
(dp819
g81
I4
ssg82
g813
sg75
(lp820
S'localhost:8000'
p821
asbasbasbag68
(g84
g70
NtRp822
(dp823
g73
(dp824
sg82
g486
sg75
(lp825
g68
(g89
g70
NtRp826
(dp827
g73
(dp828
g93
g94
ssg82
g822
sg75
(lp829
S'http_user_agent'
p830
asbag68
(g89
g70
NtRp831
(dp832
g73
(dp833
g100
g101
ssg82
g822
sg75
(lp834
S':'
asbag68
(g89
g70
NtRp835
(dp836
g73
(dp837
sg82
g822
sg75
(lp838
g68
(g69
g70
NtRp839
(dp840
g73
(dp841
g81
I4
ssg82
g835
sg75
(lp842
S'Mozilla/5.0 (X11; Linux x86_64) AppleWebKit/537.11 (KHTML, like Gecko) Chrome/23.0.1271.97 Safari/537.11'
p843
asbasbasbag68
(g84
g70
NtRp844
(dp845
g73
(dp846
sg82
g486
sg75
(lp847
g68
(g89
g70
NtRp848
(dp849
g73
(dp850
g93
g94
ssg82
g844
sg75
(lp851
S'is_jython'
p852
asbag68
(g89
g70
NtRp853
(dp854
g73
(dp855
g100
g101
ssg82
g844
sg75
(lp856
S':'
asbag68
(g89
g70
NtRp857
(dp858
g73
(dp859
sg82
g844
sg75
(lp860
g68
(g69
g70
NtRp861
(dp862
g73
(dp863
g81
I4
ssg82
g857
sg75
(lp864
g111
asbasbasbag68
(g84
g70
NtRp865
(dp866
g73
(dp867
sg82
g486
sg75
(lp868
g68
(g89
g70
NtRp869
(dp870
g73
(dp871
g93
g94
ssg82
g865
sg75
(lp872
S'is_pypy'
p873
asbag68
(g89
g70
NtRp874
(dp875
g73
(dp876
g100
g101
ssg82
g865
sg75
(lp877
S':'
asbag68
(g89
g70
NtRp878
(dp879
g73
(dp880
sg82
g865
sg75
(lp881
g68
(g69
g70
NtRp882
(dp883
g73
(dp884
g81
I4
ssg82
g878
sg75
(lp885
g111
asbasbasbag68
(g84
g70
NtRp886
(dp887
g73
(dp888
sg82
g486
sg75
(lp889
g68
(g89
g70
NtRp890
(dp891
g73
(dp892
g93
g94
ssg82
g886
sg75
(lp893
S'local_hosts'
p894
asbag68
(g89
g70
NtRp895
(dp896
g73
(dp897
g100
g101
ssg82
g886
sg75
(lp898
S':'
asbag68
(g89
g70
NtRp899
(dp900
g73
(dp901
sg82
g886
sg75
(lp902
g68
(g69
g70
NtRp903
(dp904
g73
(dp905
g81
I4
ssg82
g899
sg75
(lp906
g68
(g77
g70
NtRp907
(dp908
g73
(dp909
g81
I3
ssg82
Nsg75
(lp910
g68
(g84
g70
NtRp911
(dp912
g73
(dp913
sg82
g907
sg75
(lp914
g68
(g89
g70
NtRp915
(dp916
g73
(dp917
sg82
g911
sg75
(lp918
g68
(g69
g70
NtRp919
(dp920
g73
(dp921
g81
I3
ssg82
g915
sg75
(lp922
S'127.0.1.1'
p923
asbasbasbag68
(g84
g70
NtRp924
(dp925
g73
(dp926
sg82
g907
sg75
(lp927
g68
(g89
g70
NtRp928
(dp929
g73
(dp930
sg82
g924
sg75
(lp931
g68
(g69
g70
NtRp932
(dp933
g73
(dp934
g81
I3
ssg82
g928
sg75
(lp935
S'::1'
p936
asbasbasbag68
(g84
g70
NtRp937
(dp938
g73
(dp939
sg82
g907
sg75
(lp940
g68
(g89
g70
NtRp941
(dp942
g73
(dp943
sg82
g937
sg75
(lp944
g68
(g69
g70
NtRp945
(dp946
g73
(dp947
g81
I3
ssg82
g941
sg75
(lp948
S'crunchbang'
p949
asbasbasbag68
(g84
g70
NtRp950
(dp951
g73
(dp952
sg82
g907
sg75
(lp953
g68
(g89
g70
NtRp954
(dp955
g73
(dp956
sg82
g950
sg75
(lp957
g68
(g69
g70
NtRp958
(dp959
g73
(dp960
g81
I3
ssg82
g954
sg75
(lp961
S'::ffff:127.0.0.1'
p962
asbasbasbag68
(g84
g70
NtRp963
(dp964
g73
(dp965
sg82
g907
sg75
(lp966
g68
(g89
g70
NtRp967
(dp968
g73
(dp969
sg82
g963
sg75
(lp970
g68
(g69
g70
NtRp971
(dp972
g73
(dp973
g81
I3
ssg82
g967
sg75
(lp974
S'127.0.0.1'
p975
asbasbasbasbasbasbasbag68
(g84
g70
NtRp976
(dp977
g73
(dp978
sg82
g486
sg75
(lp979
g68
(g89
g70
NtRp980
(dp981
g73
(dp982
g93
g94
ssg82
g976
sg75
(lp983
S'path_info'
p984
asbag68
(g89
g70
NtRp985
(dp986
g73
(dp987
g100
g101
ssg82
g976
sg75
(lp988
S':'
asbag68
(g89
g70
NtRp989
(dp990
g73
(dp991
sg82
g976
sg75
(lp992
g68
(g69
g70
NtRp993
(dp994
g73
(dp995
g81
I4
ssg82
g989
sg75
(lp996
S'/'
asbasbasbag68
(g84
g70
NtRp997
(dp998
g73
(dp999
sg82
g486
sg75
(lp1000
g68
(g89
g70
NtRp1001
(dp1002
g73
(dp1003
g93
g94
ssg82
g997
sg75
(lp1004
S'query_string'
p1005
asbag68
(g89
g70
NtRp1006
(dp1007
g73
(dp1008
g100
g101
ssg82
g997
sg75
(lp1009
S':'
asbag68
(g89
g70
NtRp1010
(dp1011
g73
(dp1012
sg82
g997
sg75
(lp1013
g68
(g69
g70
NtRp1014
(dp1015
g73
(dp1016
g81
I4
ssg82
g1010
sg75
(lp1017
S''
asbasbasbag68
(g84
g70
NtRp1018
(dp1019
g73
(dp1020
sg82
g486
sg75
(lp1021
g68
(g89
g70
NtRp1022
(dp1023
g73
(dp1024
g93
g94
ssg82
g1018
sg75
(lp1025
S'remote_addr'
p1026
asbag68
(g89
g70
NtRp1027
(dp1028
g73
(dp1029
g100
g101
ssg82
g1018
sg75
(lp1030
S':'
asbag68
(g89
g70
NtRp1031
(dp1032
g73
(dp1033
sg82
g1018
sg75
(lp1034
g68
(g69
g70
NtRp1035
(dp1036
g73
(dp1037
g81
I4
ssg82
g1031
sg75
(lp1038
g223
asbasbasbag68
(g84
g70
NtRp1039
(dp1040
g73
(dp1041
sg82
g486
sg75
(lp1042
g68
(g89
g70
NtRp1043
(dp1044
g73
(dp1045
g93
g94
ssg82
g1039
sg75
(lp1046
S'remote_port'
p1047
asbag68
(g89
g70
NtRp1048
(dp1049
g73
(dp1050
g100
g101
ssg82
g1039
sg75
(lp1051
S':'
asbag68
(g89
g70
NtRp1052
(dp1053
g73
(dp1054
sg82
g1039
sg75
(lp1055
g68
(g69
g70
NtRp1056
(dp1057
g73
(dp1058
g81
I4
ssg82
g1052
sg75
(lp1059
S'38284'
p1060
asbasbasbag68
(g84
g70
NtRp1061
(dp1062
g73
(dp1063
sg82
g486
sg75
(lp1064
g68
(g89
g70
NtRp1065
(dp1066
g73
(dp1067
g93
g94
ssg82
g1061
sg75
(lp1068
S'request_method'
p1069
asbag68
(g89
g70
NtRp1070
(dp1071
g73
(dp1072
g100
g101
ssg82
g1061
sg75
(lp1073
S':'
asbag68
(g89
g70
NtRp1074
(dp1075
g73
(dp1076
sg82
g1061
sg75
(lp1077
g68
(g69
g70
NtRp1078
(dp1079
g73
(dp1080
g81
I4
ssg82
g1074
sg75
(lp1081
S'GET'
p1082
asbasbasbag68
(g84
g70
NtRp1083
(dp1084
g73
(dp1085
sg82
g486
sg75
(lp1086
g68
(g89
g70
NtRp1087
(dp1088
g73
(dp1089
g93
g94
ssg82
g1083
sg75
(lp1090
S'request_uri'
p1091
asbag68
(g89
g70
NtRp1092
(dp1093
g73
(dp1094
g100
g101
ssg82
g1083
sg75
(lp1095
S':'
asbag68
(g89
g70
NtRp1096
(dp1097
g73
(dp1098
sg82
g1083
sg75
(lp1099
g68
(g69
g70
NtRp1100
(dp1101
g73
(dp1102
g81
I4
ssg82
g1096
sg75
(lp1103
S'/blog/initial/home'
p1104
asbasbasbag68
(g84
g70
NtRp1105
(dp1106
g73
(dp1107
sg82
g486
sg75
(lp1108
g68
(g89
g70
NtRp1109
(dp1110
g73
(dp1111
g93
g94
ssg82
g1105
sg75
(lp1112
S'script_name'
p1113
asbag68
(g89
g70
NtRp1114
(dp1115
g73
(dp1116
g100
g101
ssg82
g1105
sg75
(lp1117
S':'
asbag68
(g89
g70
NtRp1118
(dp1119
g73
(dp1120
sg82
g1105
sg75
(lp1121
g68
(g69
g70
NtRp1122
(dp1123
g73
(dp1124
g81
I4
ssg82
g1118
sg75
(lp1125
S''
asbasbasbag68
(g84
g70
NtRp1126
(dp1127
g73
(dp1128
sg82
g486
sg75
(lp1129
g68
(g89
g70
NtRp1130
(dp1131
g73
(dp1132
g93
g94
ssg82
g1126
sg75
(lp1133
S'server_name'
p1134
asbag68
(g89
g70
NtRp1135
(dp1136
g73
(dp1137
g100
g101
ssg82
g1126
sg75
(lp1138
S':'
asbag68
(g89
g70
NtRp1139
(dp1140
g73
(dp1141
sg82
g1126
sg75
(lp1142
g68
(g69
g70
NtRp1143
(dp1144
g73
(dp1145
g81
I4
ssg82
g1139
sg75
(lp1146
S'crunchbang'
p1147
asbasbasbag68
(g84
g70
NtRp1148
(dp1149
g73
(dp1150
sg82
g486
sg75
(lp1151
g68
(g89
g70
NtRp1152
(dp1153
g73
(dp1154
g93
g94
ssg82
g1148
sg75
(lp1155
S'server_port'
p1156
asbag68
(g89
g70
NtRp1157
(dp1158
g73
(dp1159
g100
g101
ssg82
g1148
sg75
(lp1160
S':'
asbag68
(g89
g70
NtRp1161
(dp1162
g73
(dp1163
sg82
g1148
sg75
(lp1164
g68
(g69
g70
NtRp1165
(dp1166
g73
(dp1167
g81
I4
ssg82
g1161
sg75
(lp1168
S'8000'
p1169
asbasbasbag68
(g84
g70
NtRp1170
(dp1171
g73
(dp1172
sg82
g486
sg75
(lp1173
g68
(g89
g70
NtRp1174
(dp1175
g73
(dp1176
g93
g94
ssg82
g1170
sg75
(lp1177
S'server_protocol'
p1178
asbag68
(g89
g70
NtRp1179
(dp1180
g73
(dp1181
g100
g101
ssg82
g1170
sg75
(lp1182
S':'
asbag68
(g89
g70
NtRp1183
(dp1184
g73
(dp1185
sg82
g1170
sg75
(lp1186
g68
(g69
g70
NtRp1187
(dp1188
g73
(dp1189
g81
I4
ssg82
g1183
sg75
(lp1190
S'HTTP/1.1'
p1191
asbasbasbag68
(g84
g70
NtRp1192
(dp1193
g73
(dp1194
sg82
g486
sg75
(lp1195
g68
(g89
g70
NtRp1196
(dp1197
g73
(dp1198
g93
g94
ssg82
g1192
sg75
(lp1199
S'server_software'
p1200
asbag68
(g89
g70
NtRp1201
(dp1202
g73
(dp1203
g100
g101
ssg82
g1192
sg75
(lp1204
S':'
asbag68
(g89
g70
NtRp1205
(dp1206
g73
(dp1207
sg82
g1192
sg75
(lp1208
g68
(g69
g70
NtRp1209
(dp1210
g73
(dp1211
g81
I4
ssg82
g1205
sg75
(lp1212
S'Rocket 1.2.6'
p1213
asbasbasbag68
(g84
g70
NtRp1214
(dp1215
g73
(dp1216
sg82
g486
sg75
(lp1217
g68
(g89
g70
NtRp1218
(dp1219
g73
(dp1220
g93
g94
ssg82
g1214
sg75
(lp1221
S'web2py_original_uri'
p1222
asbag68
(g89
g70
NtRp1223
(dp1224
g73
(dp1225
g100
g101
ssg82
g1214
sg75
(lp1226
S':'
asbag68
(g89
g70
NtRp1227
(dp1228
g73
(dp1229
sg82
g1214
sg75
(lp1230
g68
(g69
g70
NtRp1231
(dp1232
g73
(dp1233
g81
I4
ssg82
g1227
sg75
(lp1234
S'/'
asbasbasbag68
(g84
g70
NtRp1235
(dp1236
g73
(dp1237
sg82
g486
sg75
(lp1238
g68
(g89
g70
NtRp1239
(dp1240
g73
(dp1241
g93
g94
ssg82
g1235
sg75
(lp1242
S'web2py_path'
p1243
asbag68
(g89
g70
NtRp1244
(dp1245
g73
(dp1246
g100
g101
ssg82
g1235
sg75
(lp1247
S':'
asbag68
(g89
g70
NtRp1248
(dp1249
g73
(dp1250
sg82
g1235
sg75
(lp1251
g68
(g69
g70
NtRp1252
(dp1253
g73
(dp1254
g81
I4
ssg82
g1248
sg75
(lp1255
g533
asbasbasbag68
(g84
g70
NtRp1256
(dp1257
g73
(dp1258
sg82
g486
sg75
(lp1259
g68
(g89
g70
NtRp1260
(dp1261
g73
(dp1262
g93
g94
ssg82
g1256
sg75
(lp1263
S'web2py_version'
p1264
asbag68
(g89
g70
NtRp1265
(dp1266
g73
(dp1267
g100
g101
ssg82
g1256
sg75
(lp1268
S':'
asbag68
(g89
g70
NtRp1269
(dp1270
g73
(dp1271
sg82
g1256
sg75
(lp1272
g68
(g69
g70
NtRp1273
(dp1274
g73
(dp1275
g81
I4
ssg82
g1269
sg75
(lp1276
g68
(g77
g70
NtRp1277
(dp1278
g73
(dp1279
g81
I3
ssg82
Nsg75
(lp1280
g68
(g84
g70
NtRp1281
(dp1282
g73
(dp1283
sg82
g1277
sg75
(lp1284
g68
(g89
g70
NtRp1285
(dp1286
g73
(dp1287
sg82
g1281
sg75
(lp1288
g68
(g69
g70
NtRp1289
(dp1290
g73
(dp1291
g81
I3
ssg82
g1285
sg75
(lp1292
S'2'
asbasbasbag68
(g84
g70
NtRp1293
(dp1294
g73
(dp1295
sg82
g1277
sg75
(lp1296
g68
(g89
g70
NtRp1297
(dp1298
g73
(dp1299
sg82
g1293
sg75
(lp1300
g68
(g69
g70
NtRp1301
(dp1302
g73
(dp1303
g81
I3
ssg82
g1297
sg75
(lp1304
S'4'
asbasbasbag68
(g84
g70
NtRp1305
(dp1306
g73
(dp1307
sg82
g1277
sg75
(lp1308
g68
(g89
g70
NtRp1309
(dp1310
g73
(dp1311
sg82
g1305
sg75
(lp1312
g68
(g69
g70
NtRp1313
(dp1314
g73
(dp1315
g81
I3
ssg82
g1309
sg75
(lp1316
S'1'
asbasbasbag68
(g84
g70
NtRp1317
(dp1318
g73
(dp1319
sg82
g1277
sg75
(lp1320
g68
(g89
g70
NtRp1321
(dp1322
g73
(dp1323
sg82
g1317
sg75
(lp1324
g68
(g69
g70
NtRp1325
(dp1326
g73
(dp1327
g81
I3
ssg82
g1321
sg75
(lp1328
S'alpha.2'
p1329
asbasbasbag68
(g84
g70
NtRp1330
(dp1331
g73
(dp1332
sg82
g1277
sg75
(lp1333
g68
(g89
g70
NtRp1334
(dp1335
g73
(dp1336
sg82
g1330
sg75
(lp1337
g68
(g69
g70
NtRp1338
(dp1339
g73
(dp1340
g81
I3
ssg82
g1334
sg75
(lp1341
S'datetime.datetime(2013, 1, 10, 15, 12, 56)'
p1342
asbasbasbasbasbasbasbag68
(g84
g70
NtRp1343
(dp1344
g73
(dp1345
sg82
g486
sg75
(lp1346
g68
(g89
g70
NtRp1347
(dp1348
g73
(dp1349
g93
g94
ssg82
g1343
sg75
(lp1350
S'wsgi_errors'
p1351
asbag68
(g89
g70
NtRp1352
(dp1353
g73
(dp1354
g100
g101
ssg82
g1343
sg75
(lp1355
S':'
asbag68
(g89
g70
NtRp1356
(dp1357
g73
(dp1358
sg82
g1343
sg75
(lp1359
g68
(g69
g70
NtRp1360
(dp1361
g73
(dp1362
g81
I4
ssg82
g1356
sg75
(lp1363
S"<open file '<stderr>', mode 'w' at 0x7f4c33b1c270>"
p1364
asbasbasbag68
(g84
g70
NtRp1365
(dp1366
g73
(dp1367
sg82
g486
sg75
(lp1368
g68
(g89
g70
NtRp1369
(dp1370
g73
(dp1371
g93
g94
ssg82
g1365
sg75
(lp1372
S'wsgi_file_wrapper'
p1373
asbag68
(g89
g70
NtRp1374
(dp1375
g73
(dp1376
g100
g101
ssg82
g1365
sg75
(lp1377
S':'
asbag68
(g89
g70
NtRp1378
(dp1379
g73
(dp1380
sg82
g1365
sg75
(lp1381
g68
(g69
g70
NtRp1382
(dp1383
g73
(dp1384
g81
I4
ssg82
g1378
sg75
(lp1385
S'<class wsgiref.util.FileWrapper at 0x241f738>'
p1386
asbasbasbag68
(g84
g70
NtRp1387
(dp1388
g73
(dp1389
sg82
g486
sg75
(lp1390
g68
(g89
g70
NtRp1391
(dp1392
g73
(dp1393
g93
g94
ssg82
g1387
sg75
(lp1394
S'wsgi_input'
p1395
asbag68
(g89
g70
NtRp1396
(dp1397
g73
(dp1398
g100
g101
ssg82
g1387
sg75
(lp1399
S':'
asbag68
(g89
g70
NtRp1400
(dp1401
g73
(dp1402
sg82
g1387
sg75
(lp1403
g68
(g69
g70
NtRp1404
(dp1405
g73
(dp1406
g81
I4
ssg82
g1400
sg75
(lp1407
S'<socket._fileobject object at 0x1c241d0>'
p1408
asbasbasbag68
(g84
g70
NtRp1409
(dp1410
g73
(dp1411
sg82
g486
sg75
(lp1412
g68
(g89
g70
NtRp1413
(dp1414
g73
(dp1415
g93
g94
ssg82
g1409
sg75
(lp1416
S'wsgi_multiprocess'
p1417
asbag68
(g89
g70
NtRp1418
(dp1419
g73
(dp1420
g100
g101
ssg82
g1409
sg75
(lp1421
S':'
asbag68
(g89
g70
NtRp1422
(dp1423
g73
(dp1424
sg82
g1409
sg75
(lp1425
g68
(g69
g70
NtRp1426
(dp1427
g73
(dp1428
g81
I4
ssg82
g1422
sg75
(lp1429
g111
asbasbasbag68
(g84
g70
NtRp1430
(dp1431
g73
(dp1432
sg82
g486
sg75
(lp1433
g68
(g89
g70
NtRp1434
(dp1435
g73
(dp1436
g93
g94
ssg82
g1430
sg75
(lp1437
S'wsgi_multithread'
p1438
asbag68
(g89
g70
NtRp1439
(dp1440
g73
(dp1441
g100
g101
ssg82
g1430
sg75
(lp1442
S':'
asbag68
(g89
g70
NtRp1443
(dp1444
g73
(dp1445
sg82
g1430
sg75
(lp1446
g68
(g69
g70
NtRp1447
(dp1448
g73
(dp1449
g81
I4
ssg82
g1443
sg75
(lp1450
S'True'
p1451
asbasbasbag68
(g84
g70
NtRp1452
(dp1453
g73
(dp1454
sg82
g486
sg75
(lp1455
g68
(g89
g70
NtRp1456
(dp1457
g73
(dp1458
g93
g94
ssg82
g1452
sg75
(lp1459
S'wsgi_run_once'
p1460
asbag68
(g89
g70
NtRp1461
(dp1462
g73
(dp1463
g100
g101
ssg82
g1452
sg75
(lp1464
S':'
asbag68
(g89
g70
NtRp1465
(dp1466
g73
(dp1467
sg82
g1452
sg75
(lp1468
g68
(g69
g70
NtRp1469
(dp1470
g73
(dp1471
g81
I4
ssg82
g1465
sg75
(lp1472
g111
asbasbasbag68
(g84
g70
NtRp1473
(dp1474
g73
(dp1475
sg82
g486
sg75
(lp1476
g68
(g89
g70
NtRp1477
(dp1478
g73
(dp1479
g93
g94
ssg82
g1473
sg75
(lp1480
S'wsgi_url_scheme'
p1481
asbag68
(g89
g70
NtRp1482
(dp1483
g73
(dp1484
g100
g101
ssg82
g1473
sg75
(lp1485
S':'
asbag68
(g89
g70
NtRp1486
(dp1487
g73
(dp1488
sg82
g1473
sg75
(lp1489
g68
(g69
g70
NtRp1490
(dp1491
g73
(dp1492
g81
I4
ssg82
g1486
sg75
(lp1493
S'http'
p1494
asbasbasbag68
(g84
g70
NtRp1495
(dp1496
g73
(dp1497
sg82
g486
sg75
(lp1498
g68
(g89
g70
NtRp1499
(dp1500
g73
(dp1501
g93
g94
ssg82
g1495
sg75
(lp1502
S'wsgi_version'
p1503
asbag68
(g89
g70
NtRp1504
(dp1505
g73
(dp1506
g100
g101
ssg82
g1495
sg75
(lp1507
S':'
asbag68
(g89
g70
NtRp1508
(dp1509
g73
(dp1510
sg82
g1495
sg75
(lp1511
g68
(g69
g70
NtRp1512
(dp1513
g73
(dp1514
g81
I4
ssg82
g1508
sg75
(lp1515
g68
(g77
g70
NtRp1516
(dp1517
g73
(dp1518
g81
I3
ssg82
Nsg75
(lp1519
g68
(g84
g70
NtRp1520
(dp1521
g73
(dp1522
sg82
g1516
sg75
(lp1523
g68
(g89
g70
NtRp1524
(dp1525
g73
(dp1526
sg82
g1520
sg75
(lp1527
g68
(g69
g70
NtRp1528
(dp1529
g73
(dp1530
g81
I3
ssg82
g1524
sg75
(lp1531
S'1'
asbasbasbag68
(g84
g70
NtRp1532
(dp1533
g73
(dp1534
sg82
g1516
sg75
(lp1535
g68
(g89
g70
NtRp1536
(dp1537
g73
(dp1538
sg82
g1532
sg75
(lp1539
g68
(g69
g70
NtRp1540
(dp1541
g73
(dp1542
g81
I3
ssg82
g1536
sg75
(lp1543
S'0'
asbasbasbasbasbasbasbasbasbasbasbag68
(g84
g70
NtRp1544
(dp1545
g73
(dp1546
sg82
g78
sg75
(lp1547
g68
(g89
g70
NtRp1548
(dp1549
g73
(dp1550
g93
g94
ssg82
g1544
sg75
(lp1551
S'extension'
p1552
asbag68
(g89
g70
NtRp1553
(dp1554
g73
(dp1555
g100
g101
ssg82
g1544
sg75
(lp1556
S':'
asbag68
(g89
g70
NtRp1557
(dp1558
g73
(dp1559
sg82
g1544
sg75
(lp1560
g68
(g69
g70
NtRp1561
(dp1562
g73
(dp1563
g81
I5
ssg82
g1557
sg75
(lp1564
S'html'
p1565
asbasbasbag68
(g84
g70
NtRp1566
(dp1567
g73
(dp1568
sg82
g78
sg75
(lp1569
g68
(g89
g70
NtRp1570
(dp1571
g73
(dp1572
g93
g94
ssg82
g1566
sg75
(lp1573
S'folder'
p1574
asbag68
(g89
g70
NtRp1575
(dp1576
g73
(dp1577
g100
g101
ssg82
g1566
sg75
(lp1578
S':'
asbag68
(g89
g70
NtRp1579
(dp1580
g73
(dp1581
sg82
g1566
sg75
(lp1582
g68
(g69
g70
NtRp1583
(dp1584
g73
(dp1585
g81
I5
ssg82
g1579
sg75
(lp1586
S'/home/rochacbruno/Dropbox/stoodos/w2p/web2py/applications/blog/'
p1587
asbasbasbag68
(g84
g70
NtRp1588
(dp1589
g73
(dp1590
sg82
g78
sg75
(lp1591
g68
(g89
g70
NtRp1592
(dp1593
g73
(dp1594
g93
g94
ssg82
g1588
sg75
(lp1595
S'function'
p1596
asbag68
(g89
g70
NtRp1597
(dp1598
g73
(dp1599
g100
g101
ssg82
g1588
sg75
(lp1600
S':'
asbag68
(g89
g70
NtRp1601
(dp1602
g73
(dp1603
sg82
g1588
sg75
(lp1604
g68
(g69
g70
NtRp1605
(dp1606
g73
(dp1607
g81
I5
ssg82
g1601
sg75
(lp1608
S'home'
p1609
asbasbasbag68
(g84
g70
NtRp1610
(dp1611
g73
(dp1612
sg82
g78
sg75
(lp1613
g68
(g89
g70
NtRp1614
(dp1615
g73
(dp1616
g93
g94
ssg82
g1610
sg75
(lp1617
S'get_vars'
p1618
asbag68
(g89
g70
NtRp1619
(dp1620
g73
(dp1621
g100
g101
ssg82
g1610
sg75
(lp1622
S':'
asbag68
(g89
g70
NtRp1623
(dp1624
g73
(dp1625
sg82
g1610
sg75
(lp1626
g68
(g69
g70
NtRp1627
(dp1628
g73
(dp1629
g81
I5
ssg82
g1623
sg75
(lp1630
g68
(g77
g70
NtRp1631
(dp1632
g73
(dp1633
g81
I4
ssg82
Nsg75
(lp1634
sbasbasbasbag68
(g84
g70
NtRp1635
(dp1636
g73
(dp1637
sg82
g78
sg75
(lp1638
g68
(g89
g70
NtRp1639
(dp1640
g73
(dp1641
g93
g94
ssg82
g1635
sg75
(lp1642
S'global_settings'
p1643
asbag68
(g89
g70
NtRp1644
(dp1645
g73
(dp1646
g100
g101
ssg82
g1635
sg75
(lp1647
S':'
asbag68
(g89
g70
NtRp1648
(dp1649
g73
(dp1650
sg82
g1635
sg75
(lp1651
g68
(g69
g70
NtRp1652
(dp1653
g73
(dp1654
g81
I5
ssg82
g1648
sg75
(lp1655
g68
(g77
g70
NtRp1656
(dp1657
g73
(dp1658
g81
I4
ssg82
Nsg75
(lp1659
g68
(g84
g70
NtRp1660
(dp1661
g73
(dp1662
sg82
g1656
sg75
(lp1663
g68
(g89
g70
NtRp1664
(dp1665
g73
(dp1666
g93
g94
ssg82
g1660
sg75
(lp1667
g498
asbag68
(g89
g70
NtRp1668
(dp1669
g73
(dp1670
g100
g101
ssg82
g1660
sg75
(lp1671
S':'
asbag68
(g89
g70
NtRp1672
(dp1673
g73
(dp1674
sg82
g1660
sg75
(lp1675
g68
(g69
g70
NtRp1676
(dp1677
g73
(dp1678
g81
I4
ssg82
g1672
sg75
(lp1679
S"set(['/home/rochacbruno/Dropbox/stoodos/w2p/web2py/applications/blog/'])"
p1680
asbasbasbag68
(g84
g70
NtRp1681
(dp1682
g73
(dp1683
sg82
g1656
sg75
(lp1684
g68
(g89
g70
NtRp1685
(dp1686
g73
(dp1687
g93
g94
ssg82
g1681
sg75
(lp1688
g520
asbag68
(g89
g70
NtRp1689
(dp1690
g73
(dp1691
g100
g101
ssg82
g1681
sg75
(lp1692
S':'
asbag68
(g89
g70
NtRp1693
(dp1694
g73
(dp1695
sg82
g1681
sg75
(lp1696
g68
(g69
g70
NtRp1697
(dp1698
g73
(dp1699
g81
I4
ssg82
g1693
sg75
(lp1700
g533
asbasbasbag68
(g84
g70
NtRp1701
(dp1702
g73
(dp1703
sg82
g1656
sg75
(lp1704
g68
(g89
g70
NtRp1705
(dp1706
g73
(dp1707
g93
g94
ssg82
g1701
sg75
(lp1708
g542
asbag68
(g89
g70
NtRp1709
(dp1710
g73
(dp1711
g100
g101
ssg82
g1701
sg75
(lp1712
S':'
asbag68
(g89
g70
NtRp1713
(dp1714
g73
(dp1715
sg82
g1701
sg75
(lp1716
g68
(g69
g70
NtRp1717
(dp1718
g73
(dp1719
g81
I4
ssg82
g1713
sg75
(lp1720
g68
(g77
g70
NtRp1721
(dp1722
g73
(dp1723
g81
I3
ssg82
Nsg75
(lp1724
sbasbasbasbag68
(g84
g70
NtRp1725
(dp1726
g73
(dp1727
sg82
g1656
sg75
(lp1728
g68
(g89
g70
NtRp1729
(dp1730
g73
(dp1731
g93
g94
ssg82
g1725
sg75
(lp1732
g567
asbag68
(g89
g70
NtRp1733
(dp1734
g73
(dp1735
g100
g101
ssg82
g1725
sg75
(lp1736
S':'
asbag68
(g89
g70
NtRp1737
(dp1738
g73
(dp1739
sg82
g1725
sg75
(lp1740
g68
(g69
g70
NtRp1741
(dp1742
g73
(dp1743
g81
I4
ssg82
g1737
sg75
(lp1744
S"<Values at 0x1d7e9e0: {'verbose': False, 'ip': '127.0.0.1', 'with_scheduler': False, 'ips': [], 'shutdown_timeout': 5, 'taskbar': False, 'port': 8000, 'maxthreads': None, 'softcron': False, 'server_name': 'crunchbang', 'bpython': False, 'nogui': False, 'pid_filename': 'httpserver.pid', 'extcron': False, 'runcron': False, 'run_system_tests': False, 'test': None, 'folder': '/home/rochacbruno/Dropbox/stoodos/w2p/web2py', 'config': '', 'minthreads': None, 'winservice': '', 'shell': None, 'run': '', 'log_filename': 'httpserver.log', 'debuglevel': 30, 'args': [''], 'socket_timeout': 5, 'ssl_ca_certificate': None, 'scheduler': None, 'profiler_filename': None, 'ssl_private_key': '', 'scheduler_groups': None, 'password': '1234', 'request_queue_size': 5, 'ssl_certificate': '', 'cronjob': False, 'numthreads': None, 'quiet': False, 'interfaces': None, 'import_models': False, 'timeout': 10, 'plain': False, 'nobanner': False}>"
p1745
asbasbasbag68
(g84
g70
NtRp1746
(dp1747
g73
(dp1748
sg82
g1656
sg75
(lp1749
g68
(g89
g70
NtRp1750
(dp1751
g73
(dp1752
g93
g94
ssg82
g1746
sg75
(lp1753
g589
asbag68
(g89
g70
NtRp1754
(dp1755
g73
(dp1756
g100
g101
ssg82
g1746
sg75
(lp1757
S':'
asbag68
(g89
g70
NtRp1758
(dp1759
g73
(dp1760
sg82
g1746
sg75
(lp1761
g68
(g69
g70
NtRp1762
(dp1763
g73
(dp1764
g81
I4
ssg82
g1758
sg75
(lp1765
S'set([])'
p1766
asbasbasbag68
(g84
g70
NtRp1767
(dp1768
g73
(dp1769
sg82
g1656
sg75
(lp1770
g68
(g89
g70
NtRp1771
(dp1772
g73
(dp1773
g93
g94
ssg82
g1767
sg75
(lp1774
g611
asbag68
(g89
g70
NtRp1775
(dp1776
g73
(dp1777
g100
g101
ssg82
g1767
sg75
(lp1778
S':'
asbag68
(g89
g70
NtRp1779
(dp1780
g73
(dp1781
sg82
g1767
sg75
(lp1782
g68
(g69
g70
NtRp1783
(dp1784
g73
(dp1785
g81
I4
ssg82
g1779
sg75
(lp1786
g111
asbasbasbag68
(g84
g70
NtRp1787
(dp1788
g73
(dp1789
sg82
g1656
sg75
(lp1790
g68
(g89
g70
NtRp1791
(dp1792
g73
(dp1793
g93
g94
ssg82
g1787
sg75
(lp1794
g632
asbag68
(g89
g70
NtRp1795
(dp1796
g73
(dp1797
g100
g101
ssg82
g1787
sg75
(lp1798
S':'
asbag68
(g89
g70
NtRp1799
(dp1800
g73
(dp1801
sg82
g1787
sg75
(lp1802
g68
(g69
g70
NtRp1803
(dp1804
g73
(dp1805
g81
I4
ssg82
g1799
sg75
(lp1806
g645
asbasbasbag68
(g84
g70
NtRp1807
(dp1808
g73
(dp1809
sg82
g1656
sg75
(lp1810
g68
(g89
g70
NtRp1811
(dp1812
g73
(dp1813
g93
g94
ssg82
g1807
sg75
(lp1814
g852
asbag68
(g89
g70
NtRp1815
(dp1816
g73
(dp1817
g100
g101
ssg82
g1807
sg75
(lp1818
S':'
asbag68
(g89
g70
NtRp1819
(dp1820
g73
(dp1821
sg82
g1807
sg75
(lp1822
g68
(g69
g70
NtRp1823
(dp1824
g73
(dp1825
g81
I4
ssg82
g1819
sg75
(lp1826
g111
asbasbasbag68
(g84
g70
NtRp1827
(dp1828
g73
(dp1829
sg82
g1656
sg75
(lp1830
g68
(g89
g70
NtRp1831
(dp1832
g73
(dp1833
g93
g94
ssg82
g1827
sg75
(lp1834
g873
asbag68
(g89
g70
NtRp1835
(dp1836
g73
(dp1837
g100
g101
ssg82
g1827
sg75
(lp1838
S':'
asbag68
(g89
g70
NtRp1839
(dp1840
g73
(dp1841
sg82
g1827
sg75
(lp1842
g68
(g69
g70
NtRp1843
(dp1844
g73
(dp1845
g81
I4
ssg82
g1839
sg75
(lp1846
g111
asbasbasbag68
(g84
g70
NtRp1847
(dp1848
g73
(dp1849
sg82
g1656
sg75
(lp1850
g68
(g89
g70
NtRp1851
(dp1852
g73
(dp1853
g93
g94
ssg82
g1847
sg75
(lp1854
g894
asbag68
(g89
g70
NtRp1855
(dp1856
g73
(dp1857
g100
g101
ssg82
g1847
sg75
(lp1858
S':'
asbag68
(g89
g70
NtRp1859
(dp1860
g73
(dp1861
sg82
g1847
sg75
(lp1862
g68
(g69
g70
NtRp1863
(dp1864
g73
(dp1865
g81
I4
ssg82
g1859
sg75
(lp1866
g68
(g77
g70
NtRp1867
(dp1868
g73
(dp1869
g81
I3
ssg82
Nsg75
(lp1870
g68
(g84
g70
NtRp1871
(dp1872
g73
(dp1873
sg82
g1867
sg75
(lp1874
g68
(g89
g70
NtRp1875
(dp1876
g73
(dp1877
sg82
g1871
sg75
(lp1878
g68
(g69
g70
NtRp1879
(dp1880
g73
(dp1881
g81
I3
ssg82
g1875
sg75
(lp1882
g923
asbasbasbag68
(g84
g70
NtRp1883
(dp1884
g73
(dp1885
sg82
g1867
sg75
(lp1886
g68
(g89
g70
NtRp1887
(dp1888
g73
(dp1889
sg82
g1883
sg75
(lp1890
g68
(g69
g70
NtRp1891
(dp1892
g73
(dp1893
g81
I3
ssg82
g1887
sg75
(lp1894
g936
asbasbasbag68
(g84
g70
NtRp1895
(dp1896
g73
(dp1897
sg82
g1867
sg75
(lp1898
g68
(g89
g70
NtRp1899
(dp1900
g73
(dp1901
sg82
g1895
sg75
(lp1902
g68
(g69
g70
NtRp1903
(dp1904
g73
(dp1905
g81
I3
ssg82
g1899
sg75
(lp1906
g949
asbasbasbag68
(g84
g70
NtRp1907
(dp1908
g73
(dp1909
sg82
g1867
sg75
(lp1910
g68
(g89
g70
NtRp1911
(dp1912
g73
(dp1913
sg82
g1907
sg75
(lp1914
g68
(g69
g70
NtRp1915
(dp1916
g73
(dp1917
g81
I3
ssg82
g1911
sg75
(lp1918
g962
asbasbasbag68
(g84
g70
NtRp1919
(dp1920
g73
(dp1921
sg82
g1867
sg75
(lp1922
g68
(g89
g70
NtRp1923
(dp1924
g73
(dp1925
sg82
g1919
sg75
(lp1926
g68
(g69
g70
NtRp1927
(dp1928
g73
(dp1929
g81
I3
ssg82
g1923
sg75
(lp1930
g975
asbasbasbasbasbasbasbag68
(g84
g70
NtRp1931
(dp1932
g73
(dp1933
sg82
g1656
sg75
(lp1934
g68
(g89
g70
NtRp1935
(dp1936
g73
(dp1937
g93
g94
ssg82
g1931
sg75
(lp1938
g1264
asbag68
(g89
g70
NtRp1939
(dp1940
g73
(dp1941
g100
g101
ssg82
g1931
sg75
(lp1942
S':'
asbag68
(g89
g70
NtRp1943
(dp1944
g73
(dp1945
sg82
g1931
sg75
(lp1946
g68
(g69
g70
NtRp1947
(dp1948
g73
(dp1949
g81
I4
ssg82
g1943
sg75
(lp1950
g68
(g77
g70
NtRp1951
(dp1952
g73
(dp1953
g81
I3
ssg82
Nsg75
(lp1954
g68
(g84
g70
NtRp1955
(dp1956
g73
(dp1957
sg82
g1951
sg75
(lp1958
g68
(g89
g70
NtRp1959
(dp1960
g73
(dp1961
sg82
g1955
sg75
(lp1962
g68
(g69
g70
NtRp1963
(dp1964
g73
(dp1965
g81
I3
ssg82
g1959
sg75
(lp1966
S'2'
asbasbasbag68
(g84
g70
NtRp1967
(dp1968
g73
(dp1969
sg82
g1951
sg75
(lp1970
g68
(g89
g70
NtRp1971
(dp1972
g73
(dp1973
sg82
g1967
sg75
(lp1974
g68
(g69
g70
NtRp1975
(dp1976
g73
(dp1977
g81
I3
ssg82
g1971
sg75
(lp1978
S'4'
asbasbasbag68
(g84
g70
NtRp1979
(dp1980
g73
(dp1981
sg82
g1951
sg75
(lp1982
g68
(g89
g70
NtRp1983
(dp1984
g73
(dp1985
sg82
g1979
sg75
(lp1986
g68
(g69
g70
NtRp1987
(dp1988
g73
(dp1989
g81
I3
ssg82
g1983
sg75
(lp1990
S'1'
asbasbasbag68
(g84
g70
NtRp1991
(dp1992
g73
(dp1993
sg82
g1951
sg75
(lp1994
g68
(g89
g70
NtRp1995
(dp1996
g73
(dp1997
sg82
g1991
sg75
(lp1998
g68
(g69
g70
NtRp1999
(dp2000
g73
(dp2001
g81
I3
ssg82
g1995
sg75
(lp2002
g1329
asbasbasbag68
(g84
g70
NtRp2003
(dp2004
g73
(dp2005
sg82
g1951
sg75
(lp2006
g68
(g89
g70
NtRp2007
(dp2008
g73
(dp2009
sg82
g2003
sg75
(lp2010
g68
(g69
g70
NtRp2011
(dp2012
g73
(dp2013
g81
I3
ssg82
g2007
sg75
(lp2014
S'datetime.datetime(2013, 1, 10, 15, 12, 56)'
p2015
asbasbasbasbasbasbasbasbasbasbasbag68
(g84
g70
NtRp2016
(dp2017
g73
(dp2018
sg82
g78
sg75
(lp2019
g68
(g89
g70
NtRp2020
(dp2021
g73
(dp2022
g93
g94
ssg82
g2016
sg75
(lp2023
S'is_https'
p2024
asbag68
(g89
g70
NtRp2025
(dp2026
g73
(dp2027
g100
g101
ssg82
g2016
sg75
(lp2028
S':'
asbag68
(g89
g70
NtRp2029
(dp2030
g73
(dp2031
sg82
g2016
sg75
(lp2032
g68
(g69
g70
NtRp2033
(dp2034
g73
(dp2035
g81
I5
ssg82
g2029
sg75
(lp2036
g111
asbasbasbag68
(g84
g70
NtRp2037
(dp2038
g73
(dp2039
sg82
g78
sg75
(lp2040
g68
(g89
g70
NtRp2041
(dp2042
g73
(dp2043
g93
g94
ssg82
g2037
sg75
(lp2044
S'is_local'
p2045
asbag68
(g89
g70
NtRp2046
(dp2047
g73
(dp2048
g100
g101
ssg82
g2037
sg75
(lp2049
S':'
asbag68
(g89
g70
NtRp2050
(dp2051
g73
(dp2052
sg82
g2037
sg75
(lp2053
g68
(g69
g70
NtRp2054
(dp2055
g73
(dp2056
g81
I5
ssg82
g2050
sg75
(lp2057
g1451
asbasbasbag68
(g84
g70
NtRp2058
(dp2059
g73
(dp2060
sg82
g78
sg75
(lp2061
g68
(g89
g70
NtRp2062
(dp2063
g73
(dp2064
g93
g94
ssg82
g2058
sg75
(lp2065
S'is_restful'
p2066
asbag68
(g89
g70
NtRp2067
(dp2068
g73
(dp2069
g100
g101
ssg82
g2058
sg75
(lp2070
S':'
asbag68
(g89
g70
NtRp2071
(dp2072
g73
(dp2073
sg82
g2058
sg75
(lp2074
g68
(g69
g70
NtRp2075
(dp2076
g73
(dp2077
g81
I5
ssg82
g2071
sg75
(lp2078
g111
asbasbasbag68
(g84
g70
NtRp2079
(dp2080
g73
(dp2081
sg82
g78
sg75
(lp2082
g68
(g89
g70
NtRp2083
(dp2084
g73
(dp2085
g93
g94
ssg82
g2079
sg75
(lp2086
S'now'
p2087
asbag68
(g89
g70
NtRp2088
(dp2089
g73
(dp2090
g100
g101
ssg82
g2079
sg75
(lp2091
S':'
asbag68
(g89
g70
NtRp2092
(dp2093
g73
(dp2094
sg82
g2079
sg75
(lp2095
g68
(g69
g70
NtRp2096
(dp2097
g73
(dp2098
g81
I5
ssg82
g2092
sg75
(lp2099
S'datetime.datetime(2013, 1, 15, 21, 7, 8, 541959)'
p2100
asbasbasbag68
(g84
g70
NtRp2101
(dp2102
g73
(dp2103
sg82
g78
sg75
(lp2104
g68
(g89
g70
NtRp2105
(dp2106
g73
(dp2107
g93
g94
ssg82
g2101
sg75
(lp2108
S'post_vars'
p2109
asbag68
(g89
g70
NtRp2110
(dp2111
g73
(dp2112
g100
g101
ssg82
g2101
sg75
(lp2113
S':'
asbag68
(g89
g70
NtRp2114
(dp2115
g73
(dp2116
sg82
g2101
sg75
(lp2117
g68
(g69
g70
NtRp2118
(dp2119
g73
(dp2120
g81
I5
ssg82
g2114
sg75
(lp2121
g68
(g77
g70
NtRp2122
(dp2123
g73
(dp2124
g81
I4
ssg82
Nsg75
(lp2125
sbasbasbasbag68
(g84
g70
NtRp2126
(dp2127
g73
(dp2128
sg82
g78
sg75
(lp2129
g68
(g89
g70
NtRp2130
(dp2131
g73
(dp2132
g93
g94
ssg82
g2126
sg75
(lp2133
S'url'
p2134
asbag68
(g89
g70
NtRp2135
(dp2136
g73
(dp2137
g100
g101
ssg82
g2126
sg75
(lp2138
S':'
asbag68
(g89
g70
NtRp2139
(dp2140
g73
(dp2141
sg82
g2126
sg75
(lp2142
g68
(g69
g70
NtRp2143
(dp2144
g73
(dp2145
g81
I5
ssg82
g2139
sg75
(lp2146
S'/'
asbasbasbag68
(g84
g70
NtRp2147
(dp2148
g73
(dp2149
sg82
g78
sg75
(lp2150
g68
(g89
g70
NtRp2151
(dp2152
g73
(dp2153
g93
g94
ssg82
g2147
sg75
(lp2154
S'utcnow'
p2155
asbag68
(g89
g70
NtRp2156
(dp2157
g73
(dp2158
g100
g101
ssg82
g2147
sg75
(lp2159
S':'
asbag68
(g89
g70
NtRp2160
(dp2161
g73
(dp2162
sg82
g2147
sg75
(lp2163
g68
(g69
g70
NtRp2164
(dp2165
g73
(dp2166
g81
I5
ssg82
g2160
sg75
(lp2167
S'datetime.datetime(2013, 1, 15, 23, 7, 8, 541997)'
p2168
asbasbasbag68
(g84
g70
NtRp2169
(dp2170
g73
(dp2171
sg82
g78
sg75
(lp2172
g68
(g89
g70
NtRp2173
(dp2174
g73
(dp2175
g93
g94
ssg82
g2169
sg75
(lp2176
S'uuid'
p2177
asbag68
(g89
g70
NtRp2178
(dp2179
g73
(dp2180
g100
g101
ssg82
g2169
sg75
(lp2181
S':'
asbag68
(g89
g70
NtRp2182
(dp2183
g73
(dp2184
sg82
g2169
sg75
(lp2185
g68
(g69
g70
NtRp2186
(dp2187
g73
(dp2188
g81
I5
ssg82
g2182
sg75
(lp2189
S'blog/127.0.0.1.2013-01-15.21-07-08.aeb50f64-0231-4aea-9eba-b0c2acc32097'
p2190
asbasbasbag68
(g84
g70
NtRp2191
(dp2192
g73
(dp2193
sg82
g78
sg75
(lp2194
g68
(g89
g70
NtRp2195
(dp2196
g73
(dp2197
g93
g94
ssg82
g2191
sg75
(lp2198
S'vars'
p2199
asbag68
(g89
g70
NtRp2200
(dp2201
g73
(dp2202
g100
g101
ssg82
g2191
sg75
(lp2203
S':'
asbag68
(g89
g70
NtRp2204
(dp2205
g73
(dp2206
sg82
g2191
sg75
(lp2207
g68
(g69
g70
NtRp2208
(dp2209
g73
(dp2210
g81
I5
ssg82
g2204
sg75
(lp2211
g68
(g77
g70
NtRp2212
(dp2213
g73
(dp2214
g81
I4
ssg82
Nsg75
(lp2215
sbasbasbasbag68
(g84
g70
NtRp2216
(dp2217
g73
(dp2218
sg82
g78
sg75
(lp2219
g68
(g89
g70
NtRp2220
(dp2221
g73
(dp2222
g93
g94
ssg82
g2216
sg75
(lp2223
S'wsgi'
p2224
asbag68
(g89
g70
NtRp2225
(dp2226
g73
(dp2227
g100
g101
ssg82
g2216
sg75
(lp2228
S':'
asbag68
(g89
g70
NtRp2229
(dp2230
g73
(dp2231
sg82
g2216
sg75
(lp2232
g68
(g69
g70
NtRp2233
(dp2234
g73
(dp2235
g81
I5
ssg82
g2229
sg75
(lp2236
g68
(g77
g70
NtRp2237
(dp2238
g73
(dp2239
g81
I4
ssg82
Nsg75
(lp2240
g68
(g84
g70
NtRp2241
(dp2242
g73
(dp2243
sg82
g2237
sg75
(lp2244
g68
(g89
g70
NtRp2245
(dp2246
g73
(dp2247
g93
g94
ssg82
g2241
sg75
(lp2248
S'environ'
p2249
asbag68
(g89
g70
NtRp2250
(dp2251
g73
(dp2252
g100
g101
ssg82
g2241
sg75
(lp2253
S':'
asbag68
(g89
g70
NtRp2254
(dp2255
g73
(dp2256
sg82
g2241
sg75
(lp2257
g68
(g69
g70
NtRp2258
(dp2259
g73
(dp2260
g81
I4
ssg82
g2254
sg75
(lp2261
g68
(g77
g70
NtRp2262
(dp2263
g73
(dp2264
g81
I3
ssg82
Nsg75
(lp2265
g68
(g84
g70
NtRp2266
(dp2267
g73
(dp2268
sg82
g2262
sg75
(lp2269
g68
(g89
g70
NtRp2270
(dp2271
g73
(dp2272
g93
g94
ssg82
g2266
sg75
(lp2273
S'HTTP_ACCEPT'
p2274
asbag68
(g89
g70
NtRp2275
(dp2276
g73
(dp2277
g100
g101
ssg82
g2266
sg75
(lp2278
S':'
asbag68
(g89
g70
NtRp2279
(dp2280
g73
(dp2281
sg82
g2266
sg75
(lp2282
g68
(g69
g70
NtRp2283
(dp2284
g73
(dp2285
g81
I3
ssg82
g2279
sg75
(lp2286
g667
asbasbasbag68
(g84
g70
NtRp2287
(dp2288
g73
(dp2289
sg82
g2262
sg75
(lp2290
g68
(g89
g70
NtRp2291
(dp2292
g73
(dp2293
g93
g94
ssg82
g2287
sg75
(lp2294
S'HTTP_ACCEPT_CHARSET'
p2295
asbag68
(g89
g70
NtRp2296
(dp2297
g73
(dp2298
g100
g101
ssg82
g2287
sg75
(lp2299
S':'
asbag68
(g89
g70
NtRp2300
(dp2301
g73
(dp2302
sg82
g2287
sg75
(lp2303
g68
(g69
g70
NtRp2304
(dp2305
g73
(dp2306
g81
I3
ssg82
g2300
sg75
(lp2307
g689
asbasbasbag68
(g84
g70
NtRp2308
(dp2309
g73
(dp2310
sg82
g2262
sg75
(lp2311
g68
(g89
g70
NtRp2312
(dp2313
g73
(dp2314
g93
g94
ssg82
g2308
sg75
(lp2315
S'HTTP_ACCEPT_ENCODING'
p2316
asbag68
(g89
g70
NtRp2317
(dp2318
g73
(dp2319
g100
g101
ssg82
g2308
sg75
(lp2320
S':'
asbag68
(g89
g70
NtRp2321
(dp2322
g73
(dp2323
sg82
g2308
sg75
(lp2324
g68
(g69
g70
NtRp2325
(dp2326
g73
(dp2327
g81
I3
ssg82
g2321
sg75
(lp2328
g711
asbasbasbag68
(g84
g70
NtRp2329
(dp2330
g73
(dp2331
sg82
g2262
sg75
(lp2332
g68
(g89
g70
NtRp2333
(dp2334
g73
(dp2335
g93
g94
ssg82
g2329
sg75
(lp2336
S'HTTP_ACCEPT_LANGUAGE'
p2337
asbag68
(g89
g70
NtRp2338
(dp2339
g73
(dp2340
g100
g101
ssg82
g2329
sg75
(lp2341
S':'
asbag68
(g89
g70
NtRp2342
(dp2343
g73
(dp2344
sg82
g2329
sg75
(lp2345
g68
(g69
g70
NtRp2346
(dp2347
g73
(dp2348
g81
I3
ssg82
g2342
sg75
(lp2349
g733
asbasbasbag68
(g84
g70
NtRp2350
(dp2351
g73
(dp2352
sg82
g2262
sg75
(lp2353
g68
(g89
g70
NtRp2354
(dp2355
g73
(dp2356
g93
g94
ssg82
g2350
sg75
(lp2357
S'HTTP_CACHE_CONTROL'
p2358
asbag68
(g89
g70
NtRp2359
(dp2360
g73
(dp2361
g100
g101
ssg82
g2350
sg75
(lp2362
S':'
asbag68
(g89
g70
NtRp2363
(dp2364
g73
(dp2365
sg82
g2350
sg75
(lp2366
g68
(g69
g70
NtRp2367
(dp2368
g73
(dp2369
g81
I3
ssg82
g2363
sg75
(lp2370
g755
asbasbasbag68
(g84
g70
NtRp2371
(dp2372
g73
(dp2373
sg82
g2262
sg75
(lp2374
g68
(g89
g70
NtRp2375
(dp2376
g73
(dp2377
g93
g94
ssg82
g2371
sg75
(lp2378
S'HTTP_CONNECTION'
p2379
asbag68
(g89
g70
NtRp2380
(dp2381
g73
(dp2382
g100
g101
ssg82
g2371
sg75
(lp2383
S':'
asbag68
(g89
g70
NtRp2384
(dp2385
g73
(dp2386
sg82
g2371
sg75
(lp2387
g68
(g69
g70
NtRp2388
(dp2389
g73
(dp2390
g81
I3
ssg82
g2384
sg75
(lp2391
g777
asbasbasbag68
(g84
g70
NtRp2392
(dp2393
g73
(dp2394
sg82
g2262
sg75
(lp2395
g68
(g89
g70
NtRp2396
(dp2397
g73
(dp2398
g93
g94
ssg82
g2392
sg75
(lp2399
S'HTTP_COOKIE'
p2400
asbag68
(g89
g70
NtRp2401
(dp2402
g73
(dp2403
g100
g101
ssg82
g2392
sg75
(lp2404
S':'
asbag68
(g89
g70
NtRp2405
(dp2406
g73
(dp2407
sg82
g2392
sg75
(lp2408
g68
(g69
g70
NtRp2409
(dp2410
g73
(dp2411
g81
I3
ssg82
g2405
sg75
(lp2412
g799
asbasbasbag68
(g84
g70
NtRp2413
(dp2414
g73
(dp2415
sg82
g2262
sg75
(lp2416
g68
(g89
g70
NtRp2417
(dp2418
g73
(dp2419
g93
g94
ssg82
g2413
sg75
(lp2420
S'HTTP_HOST'
p2421
asbag68
(g89
g70
NtRp2422
(dp2423
g73
(dp2424
g100
g101
ssg82
g2413
sg75
(lp2425
S':'
asbag68
(g89
g70
NtRp2426
(dp2427
g73
(dp2428
sg82
g2413
sg75
(lp2429
g68
(g69
g70
NtRp2430
(dp2431
g73
(dp2432
g81
I3
ssg82
g2426
sg75
(lp2433
g821
asbasbasbag68
(g84
g70
NtRp2434
(dp2435
g73
(dp2436
sg82
g2262
sg75
(lp2437
g68
(g89
g70
NtRp2438
(dp2439
g73
(dp2440
g93
g94
ssg82
g2434
sg75
(lp2441
S'HTTP_USER_AGENT'
p2442
asbag68
(g89
g70
NtRp2443
(dp2444
g73
(dp2445
g100
g101
ssg82
g2434
sg75
(lp2446
S':'
asbag68
(g89
g70
NtRp2447
(dp2448
g73
(dp2449
sg82
g2434
sg75
(lp2450
g68
(g69
g70
NtRp2451
(dp2452
g73
(dp2453
g81
I3
ssg82
g2447
sg75
(lp2454
g843
asbasbasbag68
(g84
g70
NtRp2455
(dp2456
g73
(dp2457
sg82
g2262
sg75
(lp2458
g68
(g89
g70
NtRp2459
(dp2460
g73
(dp2461
g93
g94
ssg82
g2455
sg75
(lp2462
S'PATH_INFO'
p2463
asbag68
(g89
g70
NtRp2464
(dp2465
g73
(dp2466
g100
g101
ssg82
g2455
sg75
(lp2467
S':'
asbag68
(g89
g70
NtRp2468
(dp2469
g73
(dp2470
sg82
g2455
sg75
(lp2471
g68
(g69
g70
NtRp2472
(dp2473
g73
(dp2474
g81
I3
ssg82
g2468
sg75
(lp2475
S'/'
asbasbasbag68
(g84
g70
NtRp2476
(dp2477
g73
(dp2478
sg82
g2262
sg75
(lp2479
g68
(g89
g70
NtRp2480
(dp2481
g73
(dp2482
g93
g94
ssg82
g2476
sg75
(lp2483
S'QUERY_STRING'
p2484
asbag68
(g89
g70
NtRp2485
(dp2486
g73
(dp2487
g100
g101
ssg82
g2476
sg75
(lp2488
S':'
asbag68
(g89
g70
NtRp2489
(dp2490
g73
(dp2491
sg82
g2476
sg75
(lp2492
g68
(g69
g70
NtRp2493
(dp2494
g73
(dp2495
g81
I3
ssg82
g2489
sg75
(lp2496
S''
asbasbasbag68
(g84
g70
NtRp2497
(dp2498
g73
(dp2499
sg82
g2262
sg75
(lp2500
g68
(g89
g70
NtRp2501
(dp2502
g73
(dp2503
g93
g94
ssg82
g2497
sg75
(lp2504
S'REMOTE_ADDR'
p2505
asbag68
(g89
g70
NtRp2506
(dp2507
g73
(dp2508
g100
g101
ssg82
g2497
sg75
(lp2509
S':'
asbag68
(g89
g70
NtRp2510
(dp2511
g73
(dp2512
sg82
g2497
sg75
(lp2513
g68
(g69
g70
NtRp2514
(dp2515
g73
(dp2516
g81
I3
ssg82
g2510
sg75
(lp2517
g223
asbasbasbag68
(g84
g70
NtRp2518
(dp2519
g73
(dp2520
sg82
g2262
sg75
(lp2521
g68
(g89
g70
NtRp2522
(dp2523
g73
(dp2524
g93
g94
ssg82
g2518
sg75
(lp2525
S'REMOTE_PORT'
p2526
asbag68
(g89
g70
NtRp2527
(dp2528
g73
(dp2529
g100
g101
ssg82
g2518
sg75
(lp2530
S':'
asbag68
(g89
g70
NtRp2531
(dp2532
g73
(dp2533
sg82
g2518
sg75
(lp2534
g68
(g69
g70
NtRp2535
(dp2536
g73
(dp2537
g81
I3
ssg82
g2531
sg75
(lp2538
g1060
asbasbasbag68
(g84
g70
NtRp2539
(dp2540
g73
(dp2541
sg82
g2262
sg75
(lp2542
g68
(g89
g70
NtRp2543
(dp2544
g73
(dp2545
g93
g94
ssg82
g2539
sg75
(lp2546
S'REQUEST_METHOD'
p2547
asbag68
(g89
g70
NtRp2548
(dp2549
g73
(dp2550
g100
g101
ssg82
g2539
sg75
(lp2551
S':'
asbag68
(g89
g70
NtRp2552
(dp2553
g73
(dp2554
sg82
g2539
sg75
(lp2555
g68
(g69
g70
NtRp2556
(dp2557
g73
(dp2558
g81
I3
ssg82
g2552
sg75
(lp2559
g1082
asbasbasbag68
(g84
g70
NtRp2560
(dp2561
g73
(dp2562
sg82
g2262
sg75
(lp2563
g68
(g89
g70
NtRp2564
(dp2565
g73
(dp2566
g93
g94
ssg82
g2560
sg75
(lp2567
S'REQUEST_URI'
p2568
asbag68
(g89
g70
NtRp2569
(dp2570
g73
(dp2571
g100
g101
ssg82
g2560
sg75
(lp2572
S':'
asbag68
(g89
g70
NtRp2573
(dp2574
g73
(dp2575
sg82
g2560
sg75
(lp2576
g68
(g69
g70
NtRp2577
(dp2578
g73
(dp2579
g81
I3
ssg82
g2573
sg75
(lp2580
g1104
asbasbasbag68
(g84
g70
NtRp2581
(dp2582
g73
(dp2583
sg82
g2262
sg75
(lp2584
g68
(g89
g70
NtRp2585
(dp2586
g73
(dp2587
g93
g94
ssg82
g2581
sg75
(lp2588
S'SCRIPT_NAME'
p2589
asbag68
(g89
g70
NtRp2590
(dp2591
g73
(dp2592
g100
g101
ssg82
g2581
sg75
(lp2593
S':'
asbag68
(g89
g70
NtRp2594
(dp2595
g73
(dp2596
sg82
g2581
sg75
(lp2597
g68
(g69
g70
NtRp2598
(dp2599
g73
(dp2600
g81
I3
ssg82
g2594
sg75
(lp2601
S''
asbasbasbag68
(g84
g70
NtRp2602
(dp2603
g73
(dp2604
sg82
g2262
sg75
(lp2605
g68
(g89
g70
NtRp2606
(dp2607
g73
(dp2608
g93
g94
ssg82
g2602
sg75
(lp2609
S'SERVER_NAME'
p2610
asbag68
(g89
g70
NtRp2611
(dp2612
g73
(dp2613
g100
g101
ssg82
g2602
sg75
(lp2614
S':'
asbag68
(g89
g70
NtRp2615
(dp2616
g73
(dp2617
sg82
g2602
sg75
(lp2618
g68
(g69
g70
NtRp2619
(dp2620
g73
(dp2621
g81
I3
ssg82
g2615
sg75
(lp2622
g1147
asbasbasbag68
(g84
g70
NtRp2623
(dp2624
g73
(dp2625
sg82
g2262
sg75
(lp2626
g68
(g89
g70
NtRp2627
(dp2628
g73
(dp2629
g93
g94
ssg82
g2623
sg75
(lp2630
S'SERVER_PORT'
p2631
asbag68
(g89
g70
NtRp2632
(dp2633
g73
(dp2634
g100
g101
ssg82
g2623
sg75
(lp2635
S':'
asbag68
(g89
g70
NtRp2636
(dp2637
g73
(dp2638
sg82
g2623
sg75
(lp2639
g68
(g69
g70
NtRp2640
(dp2641
g73
(dp2642
g81
I3
ssg82
g2636
sg75
(lp2643
g1169
asbasbasbag68
(g84
g70
NtRp2644
(dp2645
g73
(dp2646
sg82
g2262
sg75
(lp2647
g68
(g89
g70
NtRp2648
(dp2649
g73
(dp2650
g93
g94
ssg82
g2644
sg75
(lp2651
S'SERVER_PROTOCOL'
p2652
asbag68
(g89
g70
NtRp2653
(dp2654
g73
(dp2655
g100
g101
ssg82
g2644
sg75
(lp2656
S':'
asbag68
(g89
g70
NtRp2657
(dp2658
g73
(dp2659
sg82
g2644
sg75
(lp2660
g68
(g69
g70
NtRp2661
(dp2662
g73
(dp2663
g81
I3
ssg82
g2657
sg75
(lp2664
g1191
asbasbasbag68
(g84
g70
NtRp2665
(dp2666
g73
(dp2667
sg82
g2262
sg75
(lp2668
g68
(g89
g70
NtRp2669
(dp2670
g73
(dp2671
g93
g94
ssg82
g2665
sg75
(lp2672
S'SERVER_SOFTWARE'
p2673
asbag68
(g89
g70
NtRp2674
(dp2675
g73
(dp2676
g100
g101
ssg82
g2665
sg75
(lp2677
S':'
asbag68
(g89
g70
NtRp2678
(dp2679
g73
(dp2680
sg82
g2665
sg75
(lp2681
g68
(g69
g70
NtRp2682
(dp2683
g73
(dp2684
g81
I3
ssg82
g2678
sg75
(lp2685
g1213
asbasbasbag68
(g84
g70
NtRp2686
(dp2687
g73
(dp2688
sg82
g2262
sg75
(lp2689
g68
(g89
g70
NtRp2690
(dp2691
g73
(dp2692
g93
g94
ssg82
g2686
sg75
(lp2693
S'WEB2PY_ORIGINAL_URI'
p2694
asbag68
(g89
g70
NtRp2695
(dp2696
g73
(dp2697
g100
g101
ssg82
g2686
sg75
(lp2698
S':'
asbag68
(g89
g70
NtRp2699
(dp2700
g73
(dp2701
sg82
g2686
sg75
(lp2702
g68
(g69
g70
NtRp2703
(dp2704
g73
(dp2705
g81
I3
ssg82
g2699
sg75
(lp2706
S'/'
asbasbasbag68
(g84
g70
NtRp2707
(dp2708
g73
(dp2709
sg82
g2262
sg75
(lp2710
g68
(g89
g70
NtRp2711
(dp2712
g73
(dp2713
g93
g94
ssg82
g2707
sg75
(lp2714
S'wsgi.errors'
p2715
asbag68
(g89
g70
NtRp2716
(dp2717
g73
(dp2718
g100
g101
ssg82
g2707
sg75
(lp2719
S':'
asbag68
(g89
g70
NtRp2720
(dp2721
g73
(dp2722
sg82
g2707
sg75
(lp2723
g68
(g69
g70
NtRp2724
(dp2725
g73
(dp2726
g81
I3
ssg82
g2720
sg75
(lp2727
S"<open file '<stderr>', mode 'w' at 0x7f4c33b1c270>"
p2728
asbasbasbag68
(g84
g70
NtRp2729
(dp2730
g73
(dp2731
sg82
g2262
sg75
(lp2732
g68
(g89
g70
NtRp2733
(dp2734
g73
(dp2735
g93
g94
ssg82
g2729
sg75
(lp2736
S'wsgi.file_wrapper'
p2737
asbag68
(g89
g70
NtRp2738
(dp2739
g73
(dp2740
g100
g101
ssg82
g2729
sg75
(lp2741
S':'
asbag68
(g89
g70
NtRp2742
(dp2743
g73
(dp2744
sg82
g2729
sg75
(lp2745
g68
(g69
g70
NtRp2746
(dp2747
g73
(dp2748
g81
I3
ssg82
g2742
sg75
(lp2749
S'<class wsgiref.util.FileWrapper at 0x241f738>'
p2750
asbasbasbag68
(g84
g70
NtRp2751
(dp2752
g73
(dp2753
sg82
g2262
sg75
(lp2754
g68
(g89
g70
NtRp2755
(dp2756
g73
(dp2757
g93
g94
ssg82
g2751
sg75
(lp2758
S'wsgi.input'
p2759
asbag68
(g89
g70
NtRp2760
(dp2761
g73
(dp2762
g100
g101
ssg82
g2751
sg75
(lp2763
S':'
asbag68
(g89
g70
NtRp2764
(dp2765
g73
(dp2766
sg82
g2751
sg75
(lp2767
g68
(g69
g70
NtRp2768
(dp2769
g73
(dp2770
g81
I3
ssg82
g2764
sg75
(lp2771
S'<cStringIO.StringO object at 0x1c1ffb8>'
p2772
asbasbasbag68
(g84
g70
NtRp2773
(dp2774
g73
(dp2775
sg82
g2262
sg75
(lp2776
g68
(g89
g70
NtRp2777
(dp2778
g73
(dp2779
g93
g94
ssg82
g2773
sg75
(lp2780
S'wsgi.multiprocess'
p2781
asbag68
(g89
g70
NtRp2782
(dp2783
g73
(dp2784
g100
g101
ssg82
g2773
sg75
(lp2785
S':'
asbag68
(g89
g70
NtRp2786
(dp2787
g73
(dp2788
sg82
g2773
sg75
(lp2789
g68
(g69
g70
NtRp2790
(dp2791
g73
(dp2792
g81
I3
ssg82
g2786
sg75
(lp2793
g111
asbasbasbag68
(g84
g70
NtRp2794
(dp2795
g73
(dp2796
sg82
g2262
sg75
(lp2797
g68
(g89
g70
NtRp2798
(dp2799
g73
(dp2800
g93
g94
ssg82
g2794
sg75
(lp2801
S'wsgi.multithread'
p2802
asbag68
(g89
g70
NtRp2803
(dp2804
g73
(dp2805
g100
g101
ssg82
g2794
sg75
(lp2806
S':'
asbag68
(g89
g70
NtRp2807
(dp2808
g73
(dp2809
sg82
g2794
sg75
(lp2810
g68
(g69
g70
NtRp2811
(dp2812
g73
(dp2813
g81
I3
ssg82
g2807
sg75
(lp2814
g1451
asbasbasbag68
(g84
g70
NtRp2815
(dp2816
g73
(dp2817
sg82
g2262
sg75
(lp2818
g68
(g89
g70
NtRp2819
(dp2820
g73
(dp2821
g93
g94
ssg82
g2815
sg75
(lp2822
S'wsgi.run_once'
p2823
asbag68
(g89
g70
NtRp2824
(dp2825
g73
(dp2826
g100
g101
ssg82
g2815
sg75
(lp2827
S':'
asbag68
(g89
g70
NtRp2828
(dp2829
g73
(dp2830
sg82
g2815
sg75
(lp2831
g68
(g69
g70
NtRp2832
(dp2833
g73
(dp2834
g81
I3
ssg82
g2828
sg75
(lp2835
g111
asbasbasbag68
(g84
g70
NtRp2836
(dp2837
g73
(dp2838
sg82
g2262
sg75
(lp2839
g68
(g89
g70
NtRp2840
(dp2841
g73
(dp2842
g93
g94
ssg82
g2836
sg75
(lp2843
S'wsgi.url_scheme'
p2844
asbag68
(g89
g70
NtRp2845
(dp2846
g73
(dp2847
g100
g101
ssg82
g2836
sg75
(lp2848
S':'
asbag68
(g89
g70
NtRp2849
(dp2850
g73
(dp2851
sg82
g2836
sg75
(lp2852
g68
(g69
g70
NtRp2853
(dp2854
g73
(dp2855
g81
I3
ssg82
g2849
sg75
(lp2856
g1494
asbasbasbag68
(g84
g70
NtRp2857
(dp2858
g73
(dp2859
sg82
g2262
sg75
(lp2860
g68
(g89
g70
NtRp2861
(dp2862
g73
(dp2863
g93
g94
ssg82
g2857
sg75
(lp2864
S'wsgi.version'
p2865
asbag68
(g89
g70
NtRp2866
(dp2867
g73
(dp2868
g100
g101
ssg82
g2857
sg75
(lp2869
S':'
asbag68
(g89
g70
NtRp2870
(dp2871
g73
(dp2872
sg82
g2857
sg75
(lp2873
g68
(g69
g70
NtRp2874
(dp2875
g73
(dp2876
g81
I3
ssg82
g2870
sg75
(lp2877
S'1'
asbasbasbasbasbasbasbasbasbasbasbasbasbsS'frames'
p2878
(lp2879
(dp2880
S'file'
p2881
S'/home/rochacbruno/Dropbox/stoodos/w2p/web2py/gluon/restricted.py'
p2882
sS'dump'
p2883
(dp2884
S'code'
p2885
S'\'\\nBlog = db.define_table("blog"\\n      Field("title")\\n\\t)\\n\''
p2886
sS'layer'
p2887
S"'/home/rochacbruno/Dropbox/stoodos/w2p/web2py/applications/blog/models/models.py'"
p2888
sS'global compile2'
p2889
S'<function compile2>'
p2890
sS'ccode'
p2891
S'undefined'
p2892
ssS'lnum'
p2893
I211
sS'lines'
p2894
(dp2895
I206
S"    environment['__name__'] = '__restricted__'"
p2896
sI207
S'    try:'
p2897
sI208
S'        if isinstance(code, types.CodeType):'
p2898
sI209
S'            ccode = code'
p2899
sI210
S'        else:'
p2900
sI211
S'            ccode = compile2(code, layer)'
p2901
sI212
S'        exec ccode in environment'
p2902
sI213
S'    except HTTP:'
p2903
sI214
S'        raise'
p2904
sI215
S'    except RestrictedError:'
p2905
ssS'call'
p2906
S'(code=\'\\nBlog = db.define_table("blog"\\n      Field("title")\\n\\t)\\n\', environment={\'A\': <class \'gluon.html.A\'>, \'B\': <class \'gluon.html.B\'>, \'BEAUTIFY\': <class \'gluon.html.BEAUTIFY\'>, \'BODY\': <class \'gluon.html.BODY\'>, \'BR\': <class \'gluon.html.BR\'>, \'BUTTON\': <class \'gluon.html.BUTTON\'>, \'CAT\': <class \'gluon.html.CAT\'>, \'CENTER\': <class \'gluon.html.CENTER\'>, \'CLEANUP\': <class \'gluon.validators.CLEANUP\'>, \'CODE\': <class \'gluon.html.CODE\'>, ...}, layer=\'/home/rochacbruno/Dropbox/stoodos/w2p/web2py/applications/blog/models/models.py\')'
p2907
sS'func'
p2908
S'restricted'
p2909
sa(dp2910
g2881
S'/home/rochacbruno/Dropbox/stoodos/w2p/web2py/gluon/restricted.py'
p2911
sg2883
(dp2912
S'builtincompile'
p2913
S'<built-in function compile>'
p2914
sS'code'
p2915
S'\'\\nBlog = db.define_table("blog"\\n      Field("title")\\n\\t)\\n\''
p2916
sS'code.rstrip'
p2917
S'<built-in method rstrip of str object>'
p2918
sS').replace'
p2919
g2892
sS'layer'
p2920
S"'/home/rochacbruno/Dropbox/stoodos/w2p/web2py/applications/blog/models/models.py'"
p2921
ssg2893
I194
sg2894
(dp2922
I192
S"    The +'\\n' is necessary else compile fails when code ends in a comment."
p2923
sI193
S'    """'
p2924
sI194
S"    return compile(code.rstrip().replace('\\r\\n', '\\n') + '\\n', layer, 'exec')"
p2925
sI195
S''
sI196
S''
sI197
S"def restricted(code, environment=None, layer='Unknown'):"
p2926
sI198
S'    """'
p2927
sI189
S''
sI190
S'def compile2(code, layer):'
p2928
sI191
S'    """'
p2929
ssg2906
S'(code=\'\\nBlog = db.define_table("blog"\\n      Field("title")\\n\\t)\\n\', layer=\'/home/rochacbruno/Dropbox/stoodos/w2p/web2py/applications/blog/models/models.py\')'
p2930
sg2908
S'compile2'
p2931
sasS'pyver'
p2932
S'Python 2.7.3rc2: /usr/bin/python'
p2933
sS'session'
p2934
g68
(g69
g70
NtRp2935
(dp2936
g73
(dp2937
sg75
(lp2938
g68
(g77
g70
NtRp2939
(dp2940
g73
(dp2941
g81
I5
ssg82
Nsg75
(lp2942
sbasbsS'etype'
p2943
S"<type 'exceptions.SyntaxError'>"
p2944
sS'date'
p2945
S'Tue Jan 15 21:07:08 2013'
p2946
sS'response'
p2947
g68
(g69
g70
NtRp2948
(dp2949
g73
(dp2950
sg75
(lp2951
g68
(g77
g70
NtRp2952
(dp2953
g73
(dp2954
g81
I5
ssg82
Nsg75
(lp2955
g68
(g84
g70
NtRp2956
(dp2957
g73
(dp2958
sg82
g2952
sg75
(lp2959
g68
(g89
g70
NtRp2960
(dp2961
g73
(dp2962
g93
g94
ssg82
g2956
sg75
(lp2963
g166
asbag68
(g89
g70
NtRp2964
(dp2965
g73
(dp2966
g100
g101
ssg82
g2956
sg75
(lp2967
S':'
asbag68
(g89
g70
NtRp2968
(dp2969
g73
(dp2970
sg82
g2956
sg75
(lp2971
g68
(g69
g70
NtRp2972
(dp2973
g73
(dp2974
g81
I5
ssg82
g2968
sg75
(lp2975
S'<cStringIO.StringO object at 0x1c1fa78>'
p2976
asbasbasbag68
(g84
g70
NtRp2977
(dp2978
g73
(dp2979
sg82
g2952
sg75
(lp2980
g68
(g89
g70
NtRp2981
(dp2982
g73
(dp2983
g93
g94
ssg82
g2977
sg75
(lp2984
g254
asbag68
(g89
g70
NtRp2985
(dp2986
g73
(dp2987
g100
g101
ssg82
g2977
sg75
(lp2988
S':'
asbag68
(g89
g70
NtRp2989
(dp2990
g73
(dp2991
sg82
g2977
sg75
(lp2992
g68
(g69
g70
NtRp2993
(dp2994
g73
(dp2995
g81
I5
ssg82
g2989
sg75
(lp2996
g68
(g77
g70
NtRp2997
(dp2998
g73
(dp2999
g81
I4
ssg82
Nsg75
(lp3000
g68
(g84
g70
NtRp3001
(dp3002
g73
(dp3003
sg82
g2997
sg75
(lp3004
g68
(g89
g70
NtRp3005
(dp3006
g73
(dp3007
g93
g94
ssg82
g3001
sg75
(lp3008
S'session_id_blog'
p3009
asbag68
(g89
g70
NtRp3010
(dp3011
g73
(dp3012
g100
g101
ssg82
g3001
sg75
(lp3013
S':'
asbag68
(g89
g70
NtRp3014
(dp3015
g73
(dp3016
sg82
g3001
sg75
(lp3017
g68
(g69
g70
NtRp3018
(dp3019
g73
(dp3020
g81
I4
ssg82
g3014
sg75
(lp3021
g292
ag68
(g77
g70
NtRp3022
(dp3023
g73
(dp3024
g81
I3
ssg82
Nsg75
(lp3025
g68
(g84
g70
NtRp3026
(dp3027
g73
(dp3028
sg82
g3022
sg75
(lp3029
g68
(g89
g70
NtRp3030
(dp3031
g73
(dp3032
g93
g94
ssg82
g3026
sg75
(lp3033
g305
asbag68
(g89
g70
NtRp3034
(dp3035
g73
(dp3036
g100
g101
ssg82
g3026
sg75
(lp3037
S':'
asbag68
(g89
g70
NtRp3038
(dp3039
g73
(dp3040
sg82
g3026
sg75
(lp3041
g68
(g69
g70
NtRp3042
(dp3043
g73
(dp3044
g81
I3
ssg82
g3038
sg75
(lp3045
S''
asbasbasbag68
(g84
g70
NtRp3046
(dp3047
g73
(dp3048
sg82
g3022
sg75
(lp3049
g68
(g89
g70
NtRp3050
(dp3051
g73
(dp3052
g93
g94
ssg82
g3046
sg75
(lp3053
g326
asbag68
(g89
g70
NtRp3054
(dp3055
g73
(dp3056
g100
g101
ssg82
g3046
sg75
(lp3057
S':'
asbag68
(g89
g70
NtRp3058
(dp3059
g73
(dp3060
sg82
g3046
sg75
(lp3061
g68
(g69
g70
NtRp3062
(dp3063
g73
(dp3064
g81
I3
ssg82
g3058
sg75
(lp3065
S''
asbasbasbag68
(g84
g70
NtRp3066
(dp3067
g73
(dp3068
sg82
g3022
sg75
(lp3069
g68
(g89
g70
NtRp3070
(dp3071
g73
(dp3072
g93
g94
ssg82
g3066
sg75
(lp3073
g347
asbag68
(g89
g70
NtRp3074
(dp3075
g73
(dp3076
g100
g101
ssg82
g3066
sg75
(lp3077
S':'
asbag68
(g89
g70
NtRp3078
(dp3079
g73
(dp3080
sg82
g3066
sg75
(lp3081
g68
(g69
g70
NtRp3082
(dp3083
g73
(dp3084
g81
I3
ssg82
g3078
sg75
(lp3085
S''
asbasbasbag68
(g84
g70
NtRp3086
(dp3087
g73
(dp3088
sg82
g3022
sg75
(lp3089
g68
(g89
g70
NtRp3090
(dp3091
g73
(dp3092
g93
g94
ssg82
g3086
sg75
(lp3093
g368
asbag68
(g89
g70
NtRp3094
(dp3095
g73
(dp3096
g100
g101
ssg82
g3086
sg75
(lp3097
S':'
asbag68
(g89
g70
NtRp3098
(dp3099
g73
(dp3100
sg82
g3086
sg75
(lp3101
g68
(g69
g70
NtRp3102
(dp3103
g73
(dp3104
g81
I3
ssg82
g3098
sg75
(lp3105
S''
asbasbasbag68
(g84
g70
NtRp3106
(dp3107
g73
(dp3108
sg82
g3022
sg75
(lp3109
g68
(g89
g70
NtRp3110
(dp3111
g73
(dp3112
g93
g94
ssg82
g3106
sg75
(lp3113
g389
asbag68
(g89
g70
NtRp3114
(dp3115
g73
(dp3116
g100
g101
ssg82
g3106
sg75
(lp3117
S':'
asbag68
(g89
g70
NtRp3118
(dp3119
g73
(dp3120
sg82
g3106
sg75
(lp3121
g68
(g69
g70
NtRp3122
(dp3123
g73
(dp3124
g81
I3
ssg82
g3118
sg75
(lp3125
S''
asbasbasbag68
(g84
g70
NtRp3126
(dp3127
g73
(dp3128
sg82
g3022
sg75
(lp3129
g68
(g89
g70
NtRp3130
(dp3131
g73
(dp3132
g93
g94
ssg82
g3126
sg75
(lp3133
g410
asbag68
(g89
g70
NtRp3134
(dp3135
g73
(dp3136
g100
g101
ssg82
g3126
sg75
(lp3137
S':'
asbag68
(g89
g70
NtRp3138
(dp3139
g73
(dp3140
sg82
g3126
sg75
(lp3141
g68
(g69
g70
NtRp3142
(dp3143
g73
(dp3144
g81
I3
ssg82
g3138
sg75
(lp3145
S'/'
asbasbasbag68
(g84
g70
NtRp3146
(dp3147
g73
(dp3148
sg82
g3022
sg75
(lp3149
g68
(g89
g70
NtRp3150
(dp3151
g73
(dp3152
g93
g94
ssg82
g3146
sg75
(lp3153
g431
asbag68
(g89
g70
NtRp3154
(dp3155
g73
(dp3156
g100
g101
ssg82
g3146
sg75
(lp3157
S':'
asbag68
(g89
g70
NtRp3158
(dp3159
g73
(dp3160
sg82
g3146
sg75
(lp3161
g68
(g69
g70
NtRp3162
(dp3163
g73
(dp3164
g81
I3
ssg82
g3158
sg75
(lp3165
S''
asbasbasbag68
(g84
g70
NtRp3166
(dp3167
g73
(dp3168
sg82
g3022
sg75
(lp3169
g68
(g89
g70
NtRp3170
(dp3171
g73
(dp3172
g93
g94
ssg82
g3166
sg75
(lp3173
g452
asbag68
(g89
g70
NtRp3174
(dp3175
g73
(dp3176
g100
g101
ssg82
g3166
sg75
(lp3177
S':'
asbag68
(g89
g70
NtRp3178
(dp3179
g73
(dp3180
sg82
g3166
sg75
(lp3181
g68
(g69
g70
NtRp3182
(dp3183
g73
(dp3184
g81
I3
ssg82
g3178
sg75
(lp3185
S''
asbasbasbasbasbasbasbasbasbasbasbag68
(g84
g70
NtRp3186
(dp3187
g73
(dp3188
sg82
g2952
sg75
(lp3189
g68
(g89
g70
NtRp3190
(dp3191
g73
(dp3192
g93
g94
ssg82
g3186
sg75
(lp3193
S'delimiters'
p3194
asbag68
(g89
g70
NtRp3195
(dp3196
g73
(dp3197
g100
g101
ssg82
g3186
sg75
(lp3198
S':'
asbag68
(g89
g70
NtRp3199
(dp3200
g73
(dp3201
sg82
g3186
sg75
(lp3202
g68
(g69
g70
NtRp3203
(dp3204
g73
(dp3205
g81
I5
ssg82
g3199
sg75
(lp3206
g68
(g77
g70
NtRp3207
(dp3208
g73
(dp3209
g81
I4
ssg82
Nsg75
(lp3210
g68
(g84
g70
NtRp3211
(dp3212
g73
(dp3213
sg82
g3207
sg75
(lp3214
g68
(g89
g70
NtRp3215
(dp3216
g73
(dp3217
sg82
g3211
sg75
(lp3218
g68
(g69
g70
NtRp3219
(dp3220
g73
(dp3221
g81
I4
ssg82
g3215
sg75
(lp3222
S'{{'
p3223
asbasbasbag68
(g84
g70
NtRp3224
(dp3225
g73
(dp3226
sg82
g3207
sg75
(lp3227
g68
(g89
g70
NtRp3228
(dp3229
g73
(dp3230
sg82
g3224
sg75
(lp3231
g68
(g69
g70
NtRp3232
(dp3233
g73
(dp3234
g81
I4
ssg82
g3228
sg75
(lp3235
S'}}'
p3236
asbasbasbasbasbasbasbag68
(g84
g70
NtRp3237
(dp3238
g73
(dp3239
sg82
g2952
sg75
(lp3240
g68
(g89
g70
NtRp3241
(dp3242
g73
(dp3243
g93
g94
ssg82
g3237
sg75
(lp3244
S'files'
p3245
asbag68
(g89
g70
NtRp3246
(dp3247
g73
(dp3248
g100
g101
ssg82
g3237
sg75
(lp3249
S':'
asbag68
(g89
g70
NtRp3250
(dp3251
g73
(dp3252
sg82
g3237
sg75
(lp3253
g68
(g69
g70
NtRp3254
(dp3255
g73
(dp3256
g81
I5
ssg82
g3250
sg75
(lp3257
g68
(g77
g70
NtRp3258
(dp3259
g73
(dp3260
g81
I4
ssg82
Nsg75
(lp3261
sbasbasbasbag68
(g84
g70
NtRp3262
(dp3263
g73
(dp3264
sg82
g2952
sg75
(lp3265
g68
(g89
g70
NtRp3266
(dp3267
g73
(dp3268
g93
g94
ssg82
g3262
sg75
(lp3269
S'flash'
p3270
asbag68
(g89
g70
NtRp3271
(dp3272
g73
(dp3273
g100
g101
ssg82
g3262
sg75
(lp3274
S':'
asbag68
(g89
g70
NtRp3275
(dp3276
g73
(dp3277
sg82
g3262
sg75
(lp3278
g68
(g69
g70
NtRp3279
(dp3280
g73
(dp3281
g81
I5
ssg82
g3275
sg75
(lp3282
S''
asbasbasbag68
(g84
g70
NtRp3283
(dp3284
g73
(dp3285
sg82
g2952
sg75
(lp3286
g68
(g89
g70
NtRp3287
(dp3288
g73
(dp3289
g93
g94
ssg82
g3283
sg75
(lp3290
S'generic_patterns'
p3291
asbag68
(g89
g70
NtRp3292
(dp3293
g73
(dp3294
g100
g101
ssg82
g3283
sg75
(lp3295
S':'
asbag68
(g89
g70
NtRp3296
(dp3297
g73
(dp3298
sg82
g3283
sg75
(lp3299
g68
(g69
g70
NtRp3300
(dp3301
g73
(dp3302
g81
I5
ssg82
g3296
sg75
(lp3303
g68
(g77
g70
NtRp3304
(dp3305
g73
(dp3306
g81
I4
ssg82
Nsg75
(lp3307
sbasbasbasbag68
(g84
g70
NtRp3308
(dp3309
g73
(dp3310
sg82
g2952
sg75
(lp3311
g68
(g89
g70
NtRp3312
(dp3313
g73
(dp3314
g93
g94
ssg82
g3308
sg75
(lp3315
S'headers'
p3316
asbag68
(g89
g70
NtRp3317
(dp3318
g73
(dp3319
g100
g101
ssg82
g3308
sg75
(lp3320
S':'
asbag68
(g89
g70
NtRp3321
(dp3322
g73
(dp3323
sg82
g3308
sg75
(lp3324
g68
(g69
g70
NtRp3325
(dp3326
g73
(dp3327
g81
I5
ssg82
g3321
sg75
(lp3328
g68
(g77
g70
NtRp3329
(dp3330
g73
(dp3331
g81
I4
ssg82
Nsg75
(lp3332
g68
(g84
g70
NtRp3333
(dp3334
g73
(dp3335
sg82
g3329
sg75
(lp3336
g68
(g89
g70
NtRp3337
(dp3338
g73
(dp3339
g93
g94
ssg82
g3333
sg75
(lp3340
S'X-Powered-By'
p3341
asbag68
(g89
g70
NtRp3342
(dp3343
g73
(dp3344
g100
g101
ssg82
g3333
sg75
(lp3345
S':'
asbag68
(g89
g70
NtRp3346
(dp3347
g73
(dp3348
sg82
g3333
sg75
(lp3349
g68
(g69
g70
NtRp3350
(dp3351
g73
(dp3352
g81
I4
ssg82
g3346
sg75
(lp3353
S'web2py'
p3354
asbasbasbasbasbasbasbag68
(g84
g70
NtRp3355
(dp3356
g73
(dp3357
sg82
g2952
sg75
(lp3358
g68
(g89
g70
NtRp3359
(dp3360
g73
(dp3361
g93
g94
ssg82
g3355
sg75
(lp3362
S'menu'
p3363
asbag68
(g89
g70
NtRp3364
(dp3365
g73
(dp3366
g100
g101
ssg82
g3355
sg75
(lp3367
S':'
asbag68
(g89
g70
NtRp3368
(dp3369
g73
(dp3370
sg82
g3355
sg75
(lp3371
g68
(g69
g70
NtRp3372
(dp3373
g73
(dp3374
g81
I5
ssg82
g3368
sg75
(lp3375
g68
(g77
g70
NtRp3376
(dp3377
g73
(dp3378
g81
I4
ssg82
Nsg75
(lp3379
sbasbasbasbag68
(g84
g70
NtRp3380
(dp3381
g73
(dp3382
sg82
g2952
sg75
(lp3383
g68
(g89
g70
NtRp3384
(dp3385
g73
(dp3386
g93
g94
ssg82
g3380
sg75
(lp3387
S'meta'
p3388
asbag68
(g89
g70
NtRp3389
(dp3390
g73
(dp3391
g100
g101
ssg82
g3380
sg75
(lp3392
S':'
asbag68
(g89
g70
NtRp3393
(dp3394
g73
(dp3395
sg82
g3380
sg75
(lp3396
g68
(g69
g70
NtRp3397
(dp3398
g73
(dp3399
g81
I5
ssg82
g3393
sg75
(lp3400
g68
(g77
g70
NtRp3401
(dp3402
g73
(dp3403
g81
I4
ssg82
Nsg75
(lp3404
sbasbasbasbag68
(g84
g70
NtRp3405
(dp3406
g73
(dp3407
sg82
g2952
sg75
(lp3408
g68
(g89
g70
NtRp3409
(dp3410
g73
(dp3411
g93
g94
ssg82
g3405
sg75
(lp3412
S'models_to_run'
p3413
asbag68
(g89
g70
NtRp3414
(dp3415
g73
(dp3416
g100
g101
ssg82
g3405
sg75
(lp3417
S':'
asbag68
(g89
g70
NtRp3418
(dp3419
g73
(dp3420
sg82
g3405
sg75
(lp3421
g68
(g69
g70
NtRp3422
(dp3423
g73
(dp3424
g81
I5
ssg82
g3418
sg75
(lp3425
g68
(g77
g70
NtRp3426
(dp3427
g73
(dp3428
g81
I4
ssg82
Nsg75
(lp3429
g68
(g84
g70
NtRp3430
(dp3431
g73
(dp3432
sg82
g3426
sg75
(lp3433
g68
(g89
g70
NtRp3434
(dp3435
g73
(dp3436
sg82
g3430
sg75
(lp3437
g68
(g69
g70
NtRp3438
(dp3439
g73
(dp3440
g81
I4
ssg82
g3434
sg75
(lp3441
S'^\\w+\\.py$'
p3442
asbasbasbag68
(g84
g70
NtRp3443
(dp3444
g73
(dp3445
sg82
g3426
sg75
(lp3446
g68
(g89
g70
NtRp3447
(dp3448
g73
(dp3449
sg82
g3443
sg75
(lp3450
g68
(g69
g70
NtRp3451
(dp3452
g73
(dp3453
g81
I4
ssg82
g3447
sg75
(lp3454
S'^initial/\\w+\\.py$'
p3455
asbasbasbag68
(g84
g70
NtRp3456
(dp3457
g73
(dp3458
sg82
g3426
sg75
(lp3459
g68
(g89
g70
NtRp3460
(dp3461
g73
(dp3462
sg82
g3456
sg75
(lp3463
g68
(g69
g70
NtRp3464
(dp3465
g73
(dp3466
g81
I4
ssg82
g3460
sg75
(lp3467
S'^initial/home/\\w+\\.py$'
p3468
asbasbasbasbasbasbasbag68
(g84
g70
NtRp3469
(dp3470
g73
(dp3471
sg82
g2952
sg75
(lp3472
g68
(g89
g70
NtRp3473
(dp3474
g73
(dp3475
g93
g94
ssg82
g3469
sg75
(lp3476
S'postprocessing'
p3477
asbag68
(g89
g70
NtRp3478
(dp3479
g73
(dp3480
g100
g101
ssg82
g3469
sg75
(lp3481
S':'
asbag68
(g89
g70
NtRp3482
(dp3483
g73
(dp3484
sg82
g3469
sg75
(lp3485
g68
(g69
g70
NtRp3486
(dp3487
g73
(dp3488
g81
I5
ssg82
g3482
sg75
(lp3489
g68
(g77
g70
NtRp3490
(dp3491
g73
(dp3492
g81
I4
ssg82
Nsg75
(lp3493
sbasbasbasbag68
(g84
g70
NtRp3494
(dp3495
g73
(dp3496
sg82
g2952
sg75
(lp3497
g68
(g89
g70
NtRp3498
(dp3499
g73
(dp3500
g93
g94
ssg82
g3494
sg75
(lp3501
S'session_cookie_expires'
p3502
asbag68
(g89
g70
NtRp3503
(dp3504
g73
(dp3505
g100
g101
ssg82
g3494
sg75
(lp3506
S':'
asbag68
(g89
g70
NtRp3507
(dp3508
g73
(dp3509
sg82
g3494
sg75
(lp3510
g68
(g69
g70
NtRp3511
(dp3512
g73
(dp3513
g81
I5
ssg82
g3507
sg75
(lp3514
S'None'
p3515
asbasbasbag68
(g84
g70
NtRp3516
(dp3517
g73
(dp3518
sg82
g2952
sg75
(lp3519
g68
(g89
g70
NtRp3520
(dp3521
g73
(dp3522
g93
g94
ssg82
g3516
sg75
(lp3523
S'session_data_name'
p3524
asbag68
(g89
g70
NtRp3525
(dp3526
g73
(dp3527
g100
g101
ssg82
g3516
sg75
(lp3528
S':'
asbag68
(g89
g70
NtRp3529
(dp3530
g73
(dp3531
sg82
g3516
sg75
(lp3532
g68
(g69
g70
NtRp3533
(dp3534
g73
(dp3535
g81
I5
ssg82
g3529
sg75
(lp3536
S'session_data_blog'
p3537
asbasbasbag68
(g84
g70
NtRp3538
(dp3539
g73
(dp3540
sg82
g2952
sg75
(lp3541
g68
(g89
g70
NtRp3542
(dp3543
g73
(dp3544
g93
g94
ssg82
g3538
sg75
(lp3545
S'session_file'
p3546
asbag68
(g89
g70
NtRp3547
(dp3548
g73
(dp3549
g100
g101
ssg82
g3538
sg75
(lp3550
S':'
asbag68
(g89
g70
NtRp3551
(dp3552
g73
(dp3553
sg82
g3538
sg75
(lp3554
g68
(g69
g70
NtRp3555
(dp3556
g73
(dp3557
g81
I5
ssg82
g3551
sg75
(lp3558
S'None'
p3559
asbasbasbag68
(g84
g70
NtRp3560
(dp3561
g73
(dp3562
sg82
g2952
sg75
(lp3563
g68
(g89
g70
NtRp3564
(dp3565
g73
(dp3566
g93
g94
ssg82
g3560
sg75
(lp3567
S'session_filename'
p3568
asbag68
(g89
g70
NtRp3569
(dp3570
g73
(dp3571
g100
g101
ssg82
g3560
sg75
(lp3572
S':'
asbag68
(g89
g70
NtRp3573
(dp3574
g73
(dp3575
sg82
g3560
sg75
(lp3576
g68
(g69
g70
NtRp3577
(dp3578
g73
(dp3579
g81
I5
ssg82
g3573
sg75
(lp3580
S'/home/rochacbruno/Dropbox/stoodos/w2p/web2py/applications/blog/sessions/127.0.0.1-687f191b-74f9-42d7-b571-dcfad5f5eb1d'
p3581
asbasbasbag68
(g84
g70
NtRp3582
(dp3583
g73
(dp3584
sg82
g2952
sg75
(lp3585
g68
(g89
g70
NtRp3586
(dp3587
g73
(dp3588
g93
g94
ssg82
g3582
sg75
(lp3589
S'session_id'
p3590
asbag68
(g89
g70
NtRp3591
(dp3592
g73
(dp3593
g100
g101
ssg82
g3582
sg75
(lp3594
S':'
asbag68
(g89
g70
NtRp3595
(dp3596
g73
(dp3597
sg82
g3582
sg75
(lp3598
g68
(g69
g70
NtRp3599
(dp3600
g73
(dp3601
g81
I5
ssg82
g3595
sg75
(lp3602
g292
asbasbasbag68
(g84
g70
NtRp3603
(dp3604
g73
(dp3605
sg82
g2952
sg75
(lp3606
g68
(g89
g70
NtRp3607
(dp3608
g73
(dp3609
g93
g94
ssg82
g3603
sg75
(lp3610
S'session_id_name'
p3611
asbag68
(g89
g70
NtRp3612
(dp3613
g73
(dp3614
g100
g101
ssg82
g3603
sg75
(lp3615
S':'
asbag68
(g89
g70
NtRp3616
(dp3617
g73
(dp3618
sg82
g3603
sg75
(lp3619
g68
(g69
g70
NtRp3620
(dp3621
g73
(dp3622
g81
I5
ssg82
g3616
sg75
(lp3623
g3009
asbasbasbag68
(g84
g70
NtRp3624
(dp3625
g73
(dp3626
sg82
g2952
sg75
(lp3627
g68
(g89
g70
NtRp3628
(dp3629
g73
(dp3630
g93
g94
ssg82
g3624
sg75
(lp3631
S'session_new'
p3632
asbag68
(g89
g70
NtRp3633
(dp3634
g73
(dp3635
g100
g101
ssg82
g3624
sg75
(lp3636
S':'
asbag68
(g89
g70
NtRp3637
(dp3638
g73
(dp3639
sg82
g3624
sg75
(lp3640
g68
(g69
g70
NtRp3641
(dp3642
g73
(dp3643
g81
I5
ssg82
g3637
sg75
(lp3644
g111
asbasbasbag68
(g84
g70
NtRp3645
(dp3646
g73
(dp3647
sg82
g2952
sg75
(lp3648
g68
(g89
g70
NtRp3649
(dp3650
g73
(dp3651
g93
g94
ssg82
g3645
sg75
(lp3652
S'session_storage_type'
p3653
asbag68
(g89
g70
NtRp3654
(dp3655
g73
(dp3656
g100
g101
ssg82
g3645
sg75
(lp3657
S':'
asbag68
(g89
g70
NtRp3658
(dp3659
g73
(dp3660
sg82
g3645
sg75
(lp3661
g68
(g69
g70
NtRp3662
(dp3663
g73
(dp3664
g81
I5
ssg82
g3658
sg75
(lp3665
g2881
asbasbasbag68
(g84
g70
NtRp3666
(dp3667
g73
(dp3668
sg82
g2952
sg75
(lp3669
g68
(g89
g70
NtRp3670
(dp3671
g73
(dp3672
g93
g94
ssg82
g3666
sg75
(lp3673
S'status'
p3674
asbag68
(g89
g70
NtRp3675
(dp3676
g73
(dp3677
g100
g101
ssg82
g3666
sg75
(lp3678
S':'
asbag68
(g89
g70
NtRp3679
(dp3680
g73
(dp3681
sg82
g3666
sg75
(lp3682
g68
(g69
g70
NtRp3683
(dp3684
g73
(dp3685
g81
I5
ssg82
g3679
sg75
(lp3686
S'200'
p3687
asbasbasbag68
(g84
g70
NtRp3688
(dp3689
g73
(dp3690
sg82
g2952
sg75
(lp3691
g68
(g89
g70
NtRp3692
(dp3693
g73
(dp3694
g93
g94
ssg82
g3688
sg75
(lp3695
S'view'
p3696
asbag68
(g89
g70
NtRp3697
(dp3698
g73
(dp3699
g100
g101
ssg82
g3688
sg75
(lp3700
S':'
asbag68
(g89
g70
NtRp3701
(dp3702
g73
(dp3703
sg82
g3688
sg75
(lp3704
g68
(g69
g70
NtRp3705
(dp3706
g73
(dp3707
g81
I5
ssg82
g3701
sg75
(lp3708
S'initial/home.html'
p3709
asbasbasbasbasbsS'locals'
p3710
(dp3711
g4
S"'/home/rochacbruno/Dropbox/stoodos/w2p/web2py/applications/blog/models/models.py'"
p3712
sg6
S'\'\\nBlog = db.define_table("blog"\\n      Field("title")\\n\\t)\\n\''
p3713
sssS'traceback'
p3714
S'Traceback (most recent call last):\n  File "/home/rochacbruno/Dropbox/stoodos/w2p/web2py/gluon/restricted.py", line 211, in restricted\n    ccode = compile2(code, layer)\n  File "/home/rochacbruno/Dropbox/stoodos/w2p/web2py/gluon/restricted.py", line 194, in compile2\n    return compile(code.rstrip().replace(\'\\r\\n\', \'\\n\') + \'\\n\', layer, \'exec\')\n  File "/home/rochacbruno/Dropbox/stoodos/w2p/web2py/applications/blog/models/models.py", line 3\n    Field("title")\n        ^\nSyntaxError: invalid syntax\n'
p3715
s.